
C:\Downloaded Files\Virtual-Com-2\Virtual-Com-2\Project\Virtual_COM_Port\RIDE\STM3210E-OPEN4\draw.o:     file format elf32-littlearm
C:\Downloaded Files\Virtual-Com-2\Virtual-Com-2\Project\Virtual_COM_Port\RIDE\STM3210E-OPEN4\draw.o


Disassembly of section .text.DRAW_Clear_Text:

00000000 <DRAW_Clear_Text>:
DRAW_Clear_Text():
C:\Downloaded Files\Virtual-Com-2\Virtual-Com-2\Project\Virtual_COM_Port\RIDE\CircleOS\src/draw.c:92
*  @warning       The (0x0) point in on the low left corner.
*
**/
/******************************************************************************/
void DRAW_Clear_Text( coord_t x, coord_t y, len_t len, bool mode )
{
   0:	e92d 43f7 	stmdb	sp!, {r0, r1, r2, r4, r5, r6, r7, r8, r9, lr}
   4:	460f      	mov	r7, r1
   6:	4690      	mov	r8, r2
   8:	4699      	mov	r9, r3
C:\Downloaded Files\Virtual-Com-2\Virtual-Com-2\Project\Virtual_COM_Port\RIDE\CircleOS\src/draw.c:94
    len_t i;
    coord_t ref_x = x;
   a:	4606      	mov	r6, r0
C:\Downloaded Files\Virtual-Com-2\Virtual-Com-2\Project\Virtual_COM_Port\RIDE\CircleOS\src/draw.c:97

    /* Display each character on LCD */
    for ( i = 0 ; i < len ; i++ )
   c:	2500      	movs	r5, #0
   e:	e018      	b.n	42 <DRAW_Clear_Text+0x42>
  10:	4c0e      	ldr	r4, [pc, #56]	; (4c <DRAW_Clear_Text+0x4c>)
  12:	4a0f      	ldr	r2, [pc, #60]	; (50 <DRAW_Clear_Text+0x50>)
C:\Downloaded Files\Virtual-Com-2\Virtual-Com-2\Project\Virtual_COM_Port\RIDE\CircleOS\src/draw.c:100
    {
        /* Display one character on LCD */
        LCD_DisplayChar( ref_x, y, ' ', mode ? BGndColor : TextColor,  mode ? TextColor : BGndColor, CharMagniCoeff );
  14:	f1b9 0f00 	cmp.w	r9, #0
  18:	d002      	beq.n	20 <DRAW_Clear_Text+0x20>
  1a:	8823      	ldrh	r3, [r4, #0]
  1c:	8812      	ldrh	r2, [r2, #0]
  1e:	e001      	b.n	24 <DRAW_Clear_Text+0x24>
  20:	8813      	ldrh	r3, [r2, #0]
  22:	8822      	ldrh	r2, [r4, #0]
  24:	9200      	str	r2, [sp, #0]
  26:	6862      	ldr	r2, [r4, #4]
  28:	b230      	sxth	r0, r6
  2a:	9201      	str	r2, [sp, #4]
  2c:	4639      	mov	r1, r7
  2e:	2220      	movs	r2, #32
  30:	f7ff fffe 	bl	0 <LCD_DisplayChar>
C:\Downloaded Files\Virtual-Com-2\Virtual-Com-2\Project\Virtual_COM_Port\RIDE\CircleOS\src/draw.c:103

        /* Increment the column position by character width */
        ref_x += ( Char_Width * CharMagniCoeff );
  34:	4a07      	ldr	r2, [pc, #28]	; (54 <DRAW_Clear_Text+0x54>)
  36:	6863      	ldr	r3, [r4, #4]
  38:	7812      	ldrb	r2, [r2, #0]
C:\Downloaded Files\Virtual-Com-2\Virtual-Com-2\Project\Virtual_COM_Port\RIDE\CircleOS\src/draw.c:97
{
    len_t i;
    coord_t ref_x = x;

    /* Display each character on LCD */
    for ( i = 0 ; i < len ; i++ )
  3a:	3501      	adds	r5, #1
C:\Downloaded Files\Virtual-Com-2\Virtual-Com-2\Project\Virtual_COM_Port\RIDE\CircleOS\src/draw.c:103
    {
        /* Display one character on LCD */
        LCD_DisplayChar( ref_x, y, ' ', mode ? BGndColor : TextColor,  mode ? TextColor : BGndColor, CharMagniCoeff );

        /* Increment the column position by character width */
        ref_x += ( Char_Width * CharMagniCoeff );
  3c:	fb02 6603 	mla	r6, r2, r3, r6
  40:	b2b6      	uxth	r6, r6
C:\Downloaded Files\Virtual-Com-2\Virtual-Com-2\Project\Virtual_COM_Port\RIDE\CircleOS\src/draw.c:97
{
    len_t i;
    coord_t ref_x = x;

    /* Display each character on LCD */
    for ( i = 0 ; i < len ; i++ )
  42:	4545      	cmp	r5, r8
  44:	dbe4      	blt.n	10 <DRAW_Clear_Text+0x10>
C:\Downloaded Files\Virtual-Com-2\Virtual-Com-2\Project\Virtual_COM_Port\RIDE\CircleOS\src/draw.c:105
        LCD_DisplayChar( ref_x, y, ' ', mode ? BGndColor : TextColor,  mode ? TextColor : BGndColor, CharMagniCoeff );

        /* Increment the column position by character width */
        ref_x += ( Char_Width * CharMagniCoeff );
    }
}
  46:	e8bd 83fe 	ldmia.w	sp!, {r1, r2, r3, r4, r5, r6, r7, r8, r9, pc}
  4a:	bf00      	nop
	...

Disassembly of section .text.DRAW_Handler:

00000000 <DRAW_Handler>:
DRAW_Handler():
C:\Downloaded Files\Virtual-Com-2\Virtual-Com-2\Project\Virtual_COM_Port\RIDE\CircleOS\src/draw.c:160
*  @attention  This function must <b>NOT</b> be called by the user.
*
**/
/******************************************************************************/
void DRAW_Handler( void )
{
   0:	b530      	push	{r4, r5, lr}
   2:	b085      	sub	sp, #20
C:\Downloaded Files\Virtual-Com-2\Virtual-Com-2\Project\Virtual_COM_Port\RIDE\CircleOS\src/draw.c:162

    BatState = UTIL_GetBat();
   4:	f7ff fffe 	bl	0 <UTIL_GetBat>
   8:	4a0b      	ldr	r2, [pc, #44]	; (38 <DRAW_Handler+0x38>)
   a:	4603      	mov	r3, r0
   c:	8010      	strh	r0, [r2, #0]
C:\Downloaded Files\Virtual-Com-2\Virtual-Com-2\Project\Virtual_COM_Port\RIDE\CircleOS\src/draw.c:163
    LCD_Batt( xBat, yBat, fDisplayTime, BatState, &OldBatState, divider_coord, &widthBat, &heightBat );
   e:	4a0b      	ldr	r2, [pc, #44]	; (3c <DRAW_Handler+0x3c>)
  10:	4c0b      	ldr	r4, [pc, #44]	; (40 <DRAW_Handler+0x40>)
  12:	f9b2 0000 	ldrsh.w	r0, [r2]
  16:	4d0b      	ldr	r5, [pc, #44]	; (44 <DRAW_Handler+0x44>)
  18:	4a0b      	ldr	r2, [pc, #44]	; (48 <DRAW_Handler+0x48>)
  1a:	f9b2 1000 	ldrsh.w	r1, [r2]
  1e:	78a2      	ldrb	r2, [r4, #2]
  20:	9500      	str	r5, [sp, #0]
  22:	6864      	ldr	r4, [r4, #4]
  24:	9401      	str	r4, [sp, #4]
  26:	4c09      	ldr	r4, [pc, #36]	; (4c <DRAW_Handler+0x4c>)
  28:	9402      	str	r4, [sp, #8]
  2a:	4c09      	ldr	r4, [pc, #36]	; (50 <DRAW_Handler+0x50>)
  2c:	9403      	str	r4, [sp, #12]
  2e:	f7ff fffe 	bl	0 <LCD_Batt>
C:\Downloaded Files\Virtual-Com-2\Virtual-Com-2\Project\Virtual_COM_Port\RIDE\CircleOS\src/draw.c:199
            previous_orient          = new_orient;
            rotate_counter           = 0;
        }
    }
#endif
}
  32:	b005      	add	sp, #20
  34:	bd30      	pop	{r4, r5, pc}
  36:	bf00      	nop
	...

Disassembly of section .text.DRAW_Batt:

00000000 <DRAW_Batt>:
DRAW_Batt():
C:\Downloaded Files\Virtual-Com-2\Virtual-Com-2\Project\Virtual_COM_Port\RIDE\CircleOS\src/draw.c:213
*  Draw the battery at xBat and yBat set in DRAW_Ini
*
**/
/******************************************************************************/
NODEBUG2 void DRAW_Batt( void )
{
   0:	e92d 43f7 	stmdb	sp!, {r0, r1, r2, r4, r5, r6, r7, r8, r9, lr}
C:\Downloaded Files\Virtual-Com-2\Virtual-Com-2\Project\Virtual_COM_Port\RIDE\CircleOS\src/draw.c:217
    widthBat = 24;
    heightBat = 8;

    LCD_FillRect_Circle( xBat, yBat, widthBat, heightBat, RGB_BLUE );
   4:	4f21      	ldr	r7, [pc, #132]	; (8c <DRAW_Batt+0x8c>)
   6:	4e22      	ldr	r6, [pc, #136]	; (90 <DRAW_Batt+0x90>)
C:\Downloaded Files\Virtual-Com-2\Virtual-Com-2\Project\Virtual_COM_Port\RIDE\CircleOS\src/draw.c:214
*
**/
/******************************************************************************/
NODEBUG2 void DRAW_Batt( void )
{
    widthBat = 24;
   8:	4d22      	ldr	r5, [pc, #136]	; (94 <DRAW_Batt+0x94>)
C:\Downloaded Files\Virtual-Com-2\Virtual-Com-2\Project\Virtual_COM_Port\RIDE\CircleOS\src/draw.c:215
    heightBat = 8;
   a:	4c23      	ldr	r4, [pc, #140]	; (98 <DRAW_Batt+0x98>)
C:\Downloaded Files\Virtual-Com-2\Virtual-Com-2\Project\Virtual_COM_Port\RIDE\CircleOS\src/draw.c:214
*
**/
/******************************************************************************/
NODEBUG2 void DRAW_Batt( void )
{
    widthBat = 24;
   c:	2218      	movs	r2, #24
C:\Downloaded Files\Virtual-Com-2\Virtual-Com-2\Project\Virtual_COM_Port\RIDE\CircleOS\src/draw.c:215
    heightBat = 8;
   e:	2308      	movs	r3, #8
C:\Downloaded Files\Virtual-Com-2\Virtual-Com-2\Project\Virtual_COM_Port\RIDE\CircleOS\src/draw.c:217

    LCD_FillRect_Circle( xBat, yBat, widthBat, heightBat, RGB_BLUE );
  10:	f9b7 0000 	ldrsh.w	r0, [r7]
  14:	f9b6 1000 	ldrsh.w	r1, [r6]
  18:	f44f 58f8 	mov.w	r8, #7936	; 0x1f00
C:\Downloaded Files\Virtual-Com-2\Virtual-Com-2\Project\Virtual_COM_Port\RIDE\CircleOS\src/draw.c:214
*
**/
/******************************************************************************/
NODEBUG2 void DRAW_Batt( void )
{
    widthBat = 24;
  1c:	802a      	strh	r2, [r5, #0]
C:\Downloaded Files\Virtual-Com-2\Virtual-Com-2\Project\Virtual_COM_Port\RIDE\CircleOS\src/draw.c:215
    heightBat = 8;
  1e:	8023      	strh	r3, [r4, #0]
C:\Downloaded Files\Virtual-Com-2\Virtual-Com-2\Project\Virtual_COM_Port\RIDE\CircleOS\src/draw.c:217

    LCD_FillRect_Circle( xBat, yBat, widthBat, heightBat, RGB_BLUE );
  20:	f8cd 8000 	str.w	r8, [sp]
  24:	f7ff fffe 	bl	0 <LCD_FillRect_Circle>
C:\Downloaded Files\Virtual-Com-2\Virtual-Com-2\Project\Virtual_COM_Port\RIDE\CircleOS\src/draw.c:218
    LCD_FillRect_Circle( xBat + 1 , yBat + 1 , widthBat - 2 , heightBat - 2 , RGB_WHITE );
  28:	8838      	ldrh	r0, [r7, #0]
  2a:	8831      	ldrh	r1, [r6, #0]
  2c:	882a      	ldrh	r2, [r5, #0]
  2e:	8823      	ldrh	r3, [r4, #0]
  30:	3001      	adds	r0, #1
  32:	3101      	adds	r1, #1
  34:	3a02      	subs	r2, #2
  36:	3b02      	subs	r3, #2
  38:	f64f 79ff 	movw	r9, #65535	; 0xffff
  3c:	b200      	sxth	r0, r0
  3e:	b209      	sxth	r1, r1
  40:	b212      	sxth	r2, r2
  42:	b21b      	sxth	r3, r3
  44:	f8cd 9000 	str.w	r9, [sp]
  48:	f7ff fffe 	bl	0 <LCD_FillRect_Circle>
C:\Downloaded Files\Virtual-Com-2\Virtual-Com-2\Project\Virtual_COM_Port\RIDE\CircleOS\src/draw.c:223

    widthBat = 2;
    heightBat = 4;

    LCD_FillRect_Circle( xBat - 2 , yBat + 2 , widthBat , heightBat, RGB_BLUE );
  4c:	8838      	ldrh	r0, [r7, #0]
  4e:	8831      	ldrh	r1, [r6, #0]
C:\Downloaded Files\Virtual-Com-2\Virtual-Com-2\Project\Virtual_COM_Port\RIDE\CircleOS\src/draw.c:220
    heightBat = 8;

    LCD_FillRect_Circle( xBat, yBat, widthBat, heightBat, RGB_BLUE );
    LCD_FillRect_Circle( xBat + 1 , yBat + 1 , widthBat - 2 , heightBat - 2 , RGB_WHITE );

    widthBat = 2;
  50:	2202      	movs	r2, #2
C:\Downloaded Files\Virtual-Com-2\Virtual-Com-2\Project\Virtual_COM_Port\RIDE\CircleOS\src/draw.c:223
    heightBat = 4;

    LCD_FillRect_Circle( xBat - 2 , yBat + 2 , widthBat , heightBat, RGB_BLUE );
  52:	1889      	adds	r1, r1, r2
  54:	3802      	subs	r0, #2
C:\Downloaded Files\Virtual-Com-2\Virtual-Com-2\Project\Virtual_COM_Port\RIDE\CircleOS\src/draw.c:221

    LCD_FillRect_Circle( xBat, yBat, widthBat, heightBat, RGB_BLUE );
    LCD_FillRect_Circle( xBat + 1 , yBat + 1 , widthBat - 2 , heightBat - 2 , RGB_WHITE );

    widthBat = 2;
    heightBat = 4;
  56:	2304      	movs	r3, #4
C:\Downloaded Files\Virtual-Com-2\Virtual-Com-2\Project\Virtual_COM_Port\RIDE\CircleOS\src/draw.c:223

    LCD_FillRect_Circle( xBat - 2 , yBat + 2 , widthBat , heightBat, RGB_BLUE );
  58:	b200      	sxth	r0, r0
  5a:	b209      	sxth	r1, r1
C:\Downloaded Files\Virtual-Com-2\Virtual-Com-2\Project\Virtual_COM_Port\RIDE\CircleOS\src/draw.c:220
    heightBat = 8;

    LCD_FillRect_Circle( xBat, yBat, widthBat, heightBat, RGB_BLUE );
    LCD_FillRect_Circle( xBat + 1 , yBat + 1 , widthBat - 2 , heightBat - 2 , RGB_WHITE );

    widthBat = 2;
  5c:	802a      	strh	r2, [r5, #0]
C:\Downloaded Files\Virtual-Com-2\Virtual-Com-2\Project\Virtual_COM_Port\RIDE\CircleOS\src/draw.c:221
    heightBat = 4;
  5e:	8023      	strh	r3, [r4, #0]
C:\Downloaded Files\Virtual-Com-2\Virtual-Com-2\Project\Virtual_COM_Port\RIDE\CircleOS\src/draw.c:223

    LCD_FillRect_Circle( xBat - 2 , yBat + 2 , widthBat , heightBat, RGB_BLUE );
  60:	f8cd 8000 	str.w	r8, [sp]
  64:	f7ff fffe 	bl	0 <LCD_FillRect_Circle>
C:\Downloaded Files\Virtual-Com-2\Virtual-Com-2\Project\Virtual_COM_Port\RIDE\CircleOS\src/draw.c:224
    LCD_FillRect_Circle( xBat - 1 , yBat + 3 , widthBat - 1 , heightBat - 2 , RGB_WHITE );
  68:	8838      	ldrh	r0, [r7, #0]
  6a:	8831      	ldrh	r1, [r6, #0]
  6c:	882a      	ldrh	r2, [r5, #0]
  6e:	8823      	ldrh	r3, [r4, #0]
  70:	3801      	subs	r0, #1
  72:	3103      	adds	r1, #3
  74:	3a01      	subs	r2, #1
  76:	3b02      	subs	r3, #2
  78:	b200      	sxth	r0, r0
  7a:	b209      	sxth	r1, r1
  7c:	b212      	sxth	r2, r2
  7e:	b21b      	sxth	r3, r3
  80:	f8cd 9000 	str.w	r9, [sp]
  84:	f7ff fffe 	bl	0 <LCD_FillRect_Circle>
C:\Downloaded Files\Virtual-Com-2\Virtual-Com-2\Project\Virtual_COM_Port\RIDE\CircleOS\src/draw.c:225
}
  88:	e8bd 83fe 	ldmia.w	sp!, {r1, r2, r3, r4, r5, r6, r7, r8, r9, pc}
	...

Disassembly of section .text.DRAW_Line_Circle:

00000000 <DRAW_Line_Circle>:
DRAW_Line_Circle():
C:\Downloaded Files\Virtual-Com-2\Virtual-Com-2\Project\Virtual_COM_Port\RIDE\CircleOS\src/draw.c:248
* Rq : this fucntion does not check parameter validity
*
**/
/******************************************************************************/
NODEBUG2 void DRAW_Line_Circle( coord_t x1, coord_t y1, coord_t x2, coord_t y2, color_t color )
{
   0:	e92d 4ff7 	stmdb	sp!, {r0, r1, r2, r4, r5, r6, r7, r8, r9, sl, fp, lr}
C:\Downloaded Files\Virtual-Com-2\Virtual-Com-2\Project\Virtual_COM_Port\RIDE\CircleOS\src/draw.c:256
    coord_t dxabs, dyabs;
    coord_t sdx,   sdy;
    coord_t x,     y;
    coord_t px,    py;

    dx = x2 - x1;       /* the horizontal distance of the line */
   4:	1a14      	subs	r4, r2, r0
   6:	b2a4      	uxth	r4, r4
C:\Downloaded Files\Virtual-Com-2\Virtual-Com-2\Project\Virtual_COM_Port\RIDE\CircleOS\src/draw.c:248
* Rq : this fucntion does not check parameter validity
*
**/
/******************************************************************************/
NODEBUG2 void DRAW_Line_Circle( coord_t x1, coord_t y1, coord_t x2, coord_t y2, color_t color )
{
   8:	f8bd 6030 	ldrh.w	r6, [sp, #48]	; 0x30
C:\Downloaded Files\Virtual-Com-2\Virtual-Com-2\Project\Virtual_COM_Port\RIDE\CircleOS\src/draw.c:258
    coord_t x,     y;
    coord_t px,    py;

    dx = x2 - x1;       /* the horizontal distance of the line */

    if ( dx == 0 )     /* Vertical Line*/
   c:	b954      	cbnz	r4, 24 <DRAW_Line_Circle+0x24>
C:\Downloaded Files\Virtual-Com-2\Virtual-Com-2\Project\Virtual_COM_Port\RIDE\CircleOS\src/draw.c:260
    {
        if ( y1 > y2 ) /* We assume y2>y1 and invert if not*/
   e:	4299      	cmp	r1, r3
  10:	dd02      	ble.n	18 <DRAW_Line_Circle+0x18>
  12:	460a      	mov	r2, r1
  14:	4619      	mov	r1, r3
  16:	4613      	mov	r3, r2
C:\Downloaded Files\Virtual-Com-2\Virtual-Com-2\Project\Virtual_COM_Port\RIDE\CircleOS\src/draw.c:266
        {
            i = y2;
            y2 = y1;
            y1 = i;
        }
        LCD_FillRect_Circle( x1, y1, 1, y2 - y1 + 1, color );
  18:	3301      	adds	r3, #1
  1a:	1a5b      	subs	r3, r3, r1
  1c:	960c      	str	r6, [sp, #48]	; 0x30
  1e:	2201      	movs	r2, #1
  20:	b21b      	sxth	r3, r3
  22:	e00c      	b.n	3e <DRAW_Line_Circle+0x3e>
C:\Downloaded Files\Virtual-Com-2\Virtual-Com-2\Project\Virtual_COM_Port\RIDE\CircleOS\src/draw.c:270
        return;
    }

    dy = y2 - y1;       /* the vertical distance of the line */
  24:	1a5b      	subs	r3, r3, r1
  26:	b29b      	uxth	r3, r3
C:\Downloaded Files\Virtual-Com-2\Virtual-Com-2\Project\Virtual_COM_Port\RIDE\CircleOS\src/draw.c:272

    if ( dy == 0 )     /* Horizontal Line*/
  28:	b973      	cbnz	r3, 48 <DRAW_Line_Circle+0x48>
C:\Downloaded Files\Virtual-Com-2\Virtual-Com-2\Project\Virtual_COM_Port\RIDE\CircleOS\src/draw.c:274
    {
        if ( x1 > x2 ) /* We assume x2>x1 and we swap them if not*/
  2a:	4290      	cmp	r0, r2
  2c:	dd02      	ble.n	34 <DRAW_Line_Circle+0x34>
  2e:	4603      	mov	r3, r0
  30:	4610      	mov	r0, r2
  32:	461a      	mov	r2, r3
C:\Downloaded Files\Virtual-Com-2\Virtual-Com-2\Project\Virtual_COM_Port\RIDE\CircleOS\src/draw.c:280
        {
            i = x2;
            x2 = x1;
            x1 = i;
        }
        LCD_FillRect_Circle( x1, y1, x2 - x1 + 1, 1, color );
  34:	3201      	adds	r2, #1
  36:	1a12      	subs	r2, r2, r0
  38:	960c      	str	r6, [sp, #48]	; 0x30
  3a:	b212      	sxth	r2, r2
  3c:	2301      	movs	r3, #1
C:\Downloaded Files\Virtual-Com-2\Virtual-Com-2\Project\Virtual_COM_Port\RIDE\CircleOS\src/draw.c:321
            }
            py += sdy;
            LCD_DrawPixel( px, py, color );
        }
    }
}
  3e:	b003      	add	sp, #12
  40:	e8bd 4ff0 	ldmia.w	sp!, {r4, r5, r6, r7, r8, r9, sl, fp, lr}
C:\Downloaded Files\Virtual-Com-2\Virtual-Com-2\Project\Virtual_COM_Port\RIDE\CircleOS\src/draw.c:280
        {
            i = x2;
            x2 = x1;
            x1 = i;
        }
        LCD_FillRect_Circle( x1, y1, x2 - x1 + 1, 1, color );
  44:	f7ff bffe 	b.w	0 <LCD_FillRect_Circle>
C:\Downloaded Files\Virtual-Com-2\Virtual-Com-2\Project\Virtual_COM_Port\RIDE\CircleOS\src/draw.c:285
        return;
    }

    dxabs = abs( dx );
    dyabs = abs( dy );
  48:	fa0f fb83 	sxth.w	fp, r3
C:\Downloaded Files\Virtual-Com-2\Virtual-Com-2\Project\Virtual_COM_Port\RIDE\CircleOS\src/draw.c:284
        }
        LCD_FillRect_Circle( x1, y1, x2 - x1 + 1, 1, color );
        return;
    }

    dxabs = abs( dx );
  4c:	b224      	sxth	r4, r4
  4e:	ea84 7ae4 	eor.w	sl, r4, r4, asr #31
  52:	ebaa 7ae4 	sub.w	sl, sl, r4, asr #31
C:\Downloaded Files\Virtual-Com-2\Virtual-Com-2\Project\Virtual_COM_Port\RIDE\CircleOS\src/draw.c:285
    dyabs = abs( dy );
  56:	ea8b 75eb 	eor.w	r5, fp, fp, asr #31
  5a:	eba5 75eb 	sub.w	r5, r5, fp, asr #31
C:\Downloaded Files\Virtual-Com-2\Virtual-Com-2\Project\Virtual_COM_Port\RIDE\CircleOS\src/draw.c:286
    sdx = sgn( dx );
  5e:	f64f 72ff 	movw	r2, #65535	; 0xffff
  62:	ea12 0424 	ands.w	r4, r2, r4, asr #32
  66:	bf38      	it	cc
  68:	2401      	movcc	r4, #1
C:\Downloaded Files\Virtual-Com-2\Virtual-Com-2\Project\Virtual_COM_Port\RIDE\CircleOS\src/draw.c:284
        }
        LCD_FillRect_Circle( x1, y1, x2 - x1 + 1, 1, color );
        return;
    }

    dxabs = abs( dx );
  6a:	fa1f fa8a 	uxth.w	sl, sl
C:\Downloaded Files\Virtual-Com-2\Virtual-Com-2\Project\Virtual_COM_Port\RIDE\CircleOS\src/draw.c:285
    dyabs = abs( dy );
  6e:	b2ad      	uxth	r5, r5
C:\Downloaded Files\Virtual-Com-2\Virtual-Com-2\Project\Virtual_COM_Port\RIDE\CircleOS\src/draw.c:286
    sdx = sgn( dx );
  70:	9401      	str	r4, [sp, #4]
C:\Downloaded Files\Virtual-Com-2\Virtual-Com-2\Project\Virtual_COM_Port\RIDE\CircleOS\src/draw.c:293
    x = dyabs >> 1;
    y = dxabs >> 1;
    px = x1;
    py = y1;

    if ( dxabs >= dyabs ) /* the line is more horizontal than vertical */
  72:	fa0f f38a 	sxth.w	r3, sl
  76:	b22c      	sxth	r4, r5
C:\Downloaded Files\Virtual-Com-2\Virtual-Com-2\Project\Virtual_COM_Port\RIDE\CircleOS\src/draw.c:287
    }

    dxabs = abs( dx );
    dyabs = abs( dy );
    sdx = sgn( dx );
    sdy = sgn( dy );
  78:	ea12 0b2b 	ands.w	fp, r2, fp, asr #32
  7c:	bf38      	it	cc
  7e:	f04f 0b01 	movcc.w	fp, #1
C:\Downloaded Files\Virtual-Com-2\Virtual-Com-2\Project\Virtual_COM_Port\RIDE\CircleOS\src/draw.c:293
    x = dyabs >> 1;
    y = dxabs >> 1;
    px = x1;
    py = y1;

    if ( dxabs >= dyabs ) /* the line is more horizontal than vertical */
  82:	42a3      	cmp	r3, r4
  84:	da05      	bge.n	92 <DRAW_Line_Circle+0x92>
C:\Downloaded Files\Virtual-Com-2\Virtual-Com-2\Project\Virtual_COM_Port\RIDE\CircleOS\src/draw.c:288

    dxabs = abs( dx );
    dyabs = abs( dy );
    sdx = sgn( dx );
    sdy = sgn( dy );
    x = dyabs >> 1;
  86:	1064      	asrs	r4, r4, #1
  88:	b2a4      	uxth	r4, r4
  8a:	4688      	mov	r8, r1
  8c:	4681      	mov	r9, r0
  8e:	2700      	movs	r7, #0
  90:	e03c      	b.n	10c <DRAW_Line_Circle+0x10c>
C:\Downloaded Files\Virtual-Com-2\Virtual-Com-2\Project\Virtual_COM_Port\RIDE\CircleOS\src/draw.c:289
    y = dxabs >> 1;
  92:	105c      	asrs	r4, r3, #1
  94:	b2a4      	uxth	r4, r4
  96:	4688      	mov	r8, r1
  98:	4681      	mov	r9, r0
  9a:	2700      	movs	r7, #0
  9c:	e018      	b.n	d0 <DRAW_Line_Circle+0xd0>
C:\Downloaded Files\Virtual-Com-2\Virtual-Com-2\Project\Virtual_COM_Port\RIDE\CircleOS\src/draw.c:297

    if ( dxabs >= dyabs ) /* the line is more horizontal than vertical */
    {
        for ( i = 0; i < dxabs; i++ )
        {
            y += dyabs;
  9e:	1964      	adds	r4, r4, r5
  a0:	b2a2      	uxth	r2, r4
  a2:	b294      	uxth	r4, r2
C:\Downloaded Files\Virtual-Com-2\Virtual-Com-2\Project\Virtual_COM_Port\RIDE\CircleOS\src/draw.c:298
            if ( y >= dxabs )
  a4:	b221      	sxth	r1, r4
  a6:	4299      	cmp	r1, r3
  a8:	db05      	blt.n	b6 <DRAW_Line_Circle+0xb6>
C:\Downloaded Files\Virtual-Com-2\Virtual-Com-2\Project\Virtual_COM_Port\RIDE\CircleOS\src/draw.c:300
            {
                y -= dxabs;
  aa:	ebca 0402 	rsb	r4, sl, r2
C:\Downloaded Files\Virtual-Com-2\Virtual-Com-2\Project\Virtual_COM_Port\RIDE\CircleOS\src/draw.c:301
                py += sdy;
  ae:	44d8      	add	r8, fp
C:\Downloaded Files\Virtual-Com-2\Virtual-Com-2\Project\Virtual_COM_Port\RIDE\CircleOS\src/draw.c:300
        for ( i = 0; i < dxabs; i++ )
        {
            y += dyabs;
            if ( y >= dxabs )
            {
                y -= dxabs;
  b0:	b2a4      	uxth	r4, r4
C:\Downloaded Files\Virtual-Com-2\Virtual-Com-2\Project\Virtual_COM_Port\RIDE\CircleOS\src/draw.c:301
                py += sdy;
  b2:	fa1f f888 	uxth.w	r8, r8
C:\Downloaded Files\Virtual-Com-2\Virtual-Com-2\Project\Virtual_COM_Port\RIDE\CircleOS\src/draw.c:247
*
* Rq : this fucntion does not check parameter validity
*
**/
/******************************************************************************/
NODEBUG2 void DRAW_Line_Circle( coord_t x1, coord_t y1, coord_t x2, coord_t y2, color_t color )
  b6:	9b01      	ldr	r3, [sp, #4]
C:\Downloaded Files\Virtual-Com-2\Virtual-Com-2\Project\Virtual_COM_Port\RIDE\CircleOS\src/draw.c:304
            {
                y -= dxabs;
                py += sdy;
            }
            px += sdx;
            LCD_DrawPixel( px, py, color );
  b8:	fa0f f188 	sxth.w	r1, r8
C:\Downloaded Files\Virtual-Com-2\Virtual-Com-2\Project\Virtual_COM_Port\RIDE\CircleOS\src/draw.c:247
*
* Rq : this fucntion does not check parameter validity
*
**/
/******************************************************************************/
NODEBUG2 void DRAW_Line_Circle( coord_t x1, coord_t y1, coord_t x2, coord_t y2, color_t color )
  bc:	4499      	add	r9, r3
  be:	fa1f f989 	uxth.w	r9, r9
C:\Downloaded Files\Virtual-Com-2\Virtual-Com-2\Project\Virtual_COM_Port\RIDE\CircleOS\src/draw.c:304
            {
                y -= dxabs;
                py += sdy;
            }
            px += sdx;
            LCD_DrawPixel( px, py, color );
  c2:	fa0f f089 	sxth.w	r0, r9
  c6:	4632      	mov	r2, r6
  c8:	f7ff fffe 	bl	0 <LCD_DrawPixel>
C:\Downloaded Files\Virtual-Com-2\Virtual-Com-2\Project\Virtual_COM_Port\RIDE\CircleOS\src/draw.c:295
    px = x1;
    py = y1;

    if ( dxabs >= dyabs ) /* the line is more horizontal than vertical */
    {
        for ( i = 0; i < dxabs; i++ )
  cc:	3701      	adds	r7, #1
  ce:	b2bf      	uxth	r7, r7
  d0:	b23a      	sxth	r2, r7
  d2:	fa0f f38a 	sxth.w	r3, sl
  d6:	429a      	cmp	r2, r3
  d8:	dbe1      	blt.n	9e <DRAW_Line_Circle+0x9e>
  da:	e01b      	b.n	114 <DRAW_Line_Circle+0x114>
C:\Downloaded Files\Virtual-Com-2\Virtual-Com-2\Project\Virtual_COM_Port\RIDE\CircleOS\src/draw.c:311
    }
    else /* the line is more vertical than horizontal */
    {
        for ( i = 0; i < dyabs; i++ )
        {
            x += dxabs;
  dc:	4454      	add	r4, sl
  de:	b2a2      	uxth	r2, r4
  e0:	b294      	uxth	r4, r2
C:\Downloaded Files\Virtual-Com-2\Virtual-Com-2\Project\Virtual_COM_Port\RIDE\CircleOS\src/draw.c:312
            if ( x >= dyabs )
  e2:	b221      	sxth	r1, r4
  e4:	4299      	cmp	r1, r3
  e6:	db05      	blt.n	f4 <DRAW_Line_Circle+0xf4>
C:\Downloaded Files\Virtual-Com-2\Virtual-Com-2\Project\Virtual_COM_Port\RIDE\CircleOS\src/draw.c:315
            {
                x -= dyabs;
                px += sdx;
  e8:	9b01      	ldr	r3, [sp, #4]
C:\Downloaded Files\Virtual-Com-2\Virtual-Com-2\Project\Virtual_COM_Port\RIDE\CircleOS\src/draw.c:314
        for ( i = 0; i < dyabs; i++ )
        {
            x += dxabs;
            if ( x >= dyabs )
            {
                x -= dyabs;
  ea:	1b54      	subs	r4, r2, r5
C:\Downloaded Files\Virtual-Com-2\Virtual-Com-2\Project\Virtual_COM_Port\RIDE\CircleOS\src/draw.c:315
                px += sdx;
  ec:	4499      	add	r9, r3
C:\Downloaded Files\Virtual-Com-2\Virtual-Com-2\Project\Virtual_COM_Port\RIDE\CircleOS\src/draw.c:314
        for ( i = 0; i < dyabs; i++ )
        {
            x += dxabs;
            if ( x >= dyabs )
            {
                x -= dyabs;
  ee:	b2a4      	uxth	r4, r4
C:\Downloaded Files\Virtual-Com-2\Virtual-Com-2\Project\Virtual_COM_Port\RIDE\CircleOS\src/draw.c:315
                px += sdx;
  f0:	fa1f f989 	uxth.w	r9, r9
C:\Downloaded Files\Virtual-Com-2\Virtual-Com-2\Project\Virtual_COM_Port\RIDE\CircleOS\src/draw.c:247
*
* Rq : this fucntion does not check parameter validity
*
**/
/******************************************************************************/
NODEBUG2 void DRAW_Line_Circle( coord_t x1, coord_t y1, coord_t x2, coord_t y2, color_t color )
  f4:	44d8      	add	r8, fp
  f6:	fa1f f888 	uxth.w	r8, r8
C:\Downloaded Files\Virtual-Com-2\Virtual-Com-2\Project\Virtual_COM_Port\RIDE\CircleOS\src/draw.c:318
            {
                x -= dyabs;
                px += sdx;
            }
            py += sdy;
            LCD_DrawPixel( px, py, color );
  fa:	fa0f f089 	sxth.w	r0, r9
  fe:	fa0f f188 	sxth.w	r1, r8
 102:	4632      	mov	r2, r6
 104:	f7ff fffe 	bl	0 <LCD_DrawPixel>
C:\Downloaded Files\Virtual-Com-2\Virtual-Com-2\Project\Virtual_COM_Port\RIDE\CircleOS\src/draw.c:309
            LCD_DrawPixel( px, py, color );
        }
    }
    else /* the line is more vertical than horizontal */
    {
        for ( i = 0; i < dyabs; i++ )
 108:	3701      	adds	r7, #1
 10a:	b2bf      	uxth	r7, r7
 10c:	b23a      	sxth	r2, r7
 10e:	b22b      	sxth	r3, r5
 110:	429a      	cmp	r2, r3
 112:	dbe3      	blt.n	dc <DRAW_Line_Circle+0xdc>
C:\Downloaded Files\Virtual-Com-2\Virtual-Com-2\Project\Virtual_COM_Port\RIDE\CircleOS\src/draw.c:321
            }
            py += sdy;
            LCD_DrawPixel( px, py, color );
        }
    }
}
 114:	b003      	add	sp, #12
 116:	e8bd 8ff0 	ldmia.w	sp!, {r4, r5, r6, r7, r8, r9, sl, fp, pc}

Disassembly of section .text.DRAW_GetIndexedColorBMP:

00000000 <DRAW_GetIndexedColorBMP>:
DRAW_GetIndexedColorBMP():
C:\Downloaded Files\Virtual-Com-2\Virtual-Com-2\Project\Virtual_COM_Port\RIDE\CircleOS\src/draw.c:448
*  @return                  The color formated for the screen.
*
**/
/******************************************************************************/
NODEBUG2 color_t DRAW_GetIndexedColorBMP( u8* color_table, u16 i )
{
   0:	b510      	push	{r4, lr}
C:\Downloaded Files\Virtual-Com-2\Virtual-Com-2\Project\Virtual_COM_Port\RIDE\CircleOS\src/draw.c:450
    color_t color;
    color =  (color_table[i] & 0x1c) << 11;   //green (low)
   2:	5c43      	ldrb	r3, [r0, r1]
C:\Downloaded Files\Virtual-Com-2\Virtual-Com-2\Project\Virtual_COM_Port\RIDE\CircleOS\src/draw.c:452
    color |= (color_table[i + 1] & 0xf8) <<5; //blue
    color |= (color_table[i + 3] & 0xf8);     //red
   4:	1840      	adds	r0, r0, r1
   6:	78c2      	ldrb	r2, [r0, #3]
C:\Downloaded Files\Virtual-Com-2\Virtual-Com-2\Project\Virtual_COM_Port\RIDE\CircleOS\src/draw.c:451
/******************************************************************************/
NODEBUG2 color_t DRAW_GetIndexedColorBMP( u8* color_table, u16 i )
{
    color_t color;
    color =  (color_table[i] & 0x1c) << 11;   //green (low)
    color |= (color_table[i + 1] & 0xf8) <<5; //blue
   8:	7840      	ldrb	r0, [r0, #1]
C:\Downloaded Files\Virtual-Com-2\Virtual-Com-2\Project\Virtual_COM_Port\RIDE\CircleOS\src/draw.c:450
**/
/******************************************************************************/
NODEBUG2 color_t DRAW_GetIndexedColorBMP( u8* color_table, u16 i )
{
    color_t color;
    color =  (color_table[i] & 0x1c) << 11;   //green (low)
   a:	f003 041c 	and.w	r4, r3, #28
C:\Downloaded Files\Virtual-Com-2\Virtual-Com-2\Project\Virtual_COM_Port\RIDE\CircleOS\src/draw.c:452
    color |= (color_table[i + 1] & 0xf8) <<5; //blue
    color |= (color_table[i + 3] & 0xf8);     //red
   e:	f002 02f8 	and.w	r2, r2, #248	; 0xf8
C:\Downloaded Files\Virtual-Com-2\Virtual-Com-2\Project\Virtual_COM_Port\RIDE\CircleOS\src/draw.c:451
/******************************************************************************/
NODEBUG2 color_t DRAW_GetIndexedColorBMP( u8* color_table, u16 i )
{
    color_t color;
    color =  (color_table[i] & 0x1c) << 11;   //green (low)
    color |= (color_table[i + 1] & 0xf8) <<5; //blue
  12:	ea42 22c4 	orr.w	r2, r2, r4, lsl #11
  16:	f000 00f8 	and.w	r0, r0, #248	; 0xf8
C:\Downloaded Files\Virtual-Com-2\Virtual-Com-2\Project\Virtual_COM_Port\RIDE\CircleOS\src/draw.c:452
    color |= (color_table[i + 3] & 0xf8);     //red
  1a:	ea42 1040 	orr.w	r0, r2, r0, lsl #5
C:\Downloaded Files\Virtual-Com-2\Virtual-Com-2\Project\Virtual_COM_Port\RIDE\CircleOS\src/draw.c:455
    color |= (color_table[i] & 0xe0) >> 5;    //green (high)
    return color;
}
  1e:	ea40 1053 	orr.w	r0, r0, r3, lsr #5
  22:	bd10      	pop	{r4, pc}

Disassembly of section .text.DRAW_SetCharMagniCoeff:

00000000 <DRAW_SetCharMagniCoeff>:
DRAW_SetCharMagniCoeff():
C:\Downloaded Files\Virtual-Com-2\Virtual-Com-2\Project\Virtual_COM_Port\RIDE\CircleOS\src/draw.c:477
*
**/
/******************************************************************************/
void DRAW_SetCharMagniCoeff( mag_t Coeff )
{
    CharMagniCoeff = Coeff;
   0:	4b01      	ldr	r3, [pc, #4]	; (8 <DRAW_SetCharMagniCoeff+0x8>)
   2:	6058      	str	r0, [r3, #4]
C:\Downloaded Files\Virtual-Com-2\Virtual-Com-2\Project\Virtual_COM_Port\RIDE\CircleOS\src/draw.c:478
}
   4:	4770      	bx	lr
   6:	bf00      	nop
   8:	00000000 	.word	0x00000000

Disassembly of section .text.DRAW_RestoreCharMagniCoeff:

00000000 <DRAW_RestoreCharMagniCoeff>:
DRAW_RestoreCharMagniCoeff():
C:\Downloaded Files\Virtual-Com-2\Virtual-Com-2\Project\Virtual_COM_Port\RIDE\CircleOS\src/draw.c:337
**/
/******************************************************************************/
NODEBUG2 void DRAW_RestoreCharMagniCoeff( void )
{
#if LCD_HIGH_DEF
    DRAW_SetCharMagniCoeff( 2 );
   0:	2002      	movs	r0, #2
   2:	f7ff bffe 	b.w	0 <DRAW_RestoreCharMagniCoeff>

Disassembly of section .text.DRAW_GetCharMagniCoeff:

00000000 <DRAW_GetCharMagniCoeff>:
DRAW_GetCharMagniCoeff():
C:\Downloaded Files\Virtual-Com-2\Virtual-Com-2\Project\Virtual_COM_Port\RIDE\CircleOS\src/draw.c:496
**/
/******************************************************************************/
mag_t DRAW_GetCharMagniCoeff( void )
{
    return CharMagniCoeff;
}
   0:	4b01      	ldr	r3, [pc, #4]	; (8 <DRAW_GetCharMagniCoeff+0x8>)
   2:	6858      	ldr	r0, [r3, #4]
   4:	4770      	bx	lr
   6:	bf00      	nop
   8:	00000000 	.word	0x00000000

Disassembly of section .text.DRAW_GetTextColor:

00000000 <DRAW_GetTextColor>:
DRAW_GetTextColor():
C:\Downloaded Files\Virtual-Com-2\Virtual-Com-2\Project\Virtual_COM_Port\RIDE\CircleOS\src/draw.c:514
**/
/******************************************************************************/
color_t DRAW_GetTextColor( void )
{
    return TextColor;
}
   0:	4b01      	ldr	r3, [pc, #4]	; (8 <DRAW_GetTextColor+0x8>)
   2:	8818      	ldrh	r0, [r3, #0]
   4:	4770      	bx	lr
   6:	bf00      	nop
   8:	00000000 	.word	0x00000000

Disassembly of section .text.DRAW_SetTextColor:

00000000 <DRAW_SetTextColor>:
DRAW_SetTextColor():
C:\Downloaded Files\Virtual-Com-2\Virtual-Com-2\Project\Virtual_COM_Port\RIDE\CircleOS\src/draw.c:531
*
**/
/******************************************************************************/
void DRAW_SetTextColor( color_t Color )
{
    TextColor = Color ;
   0:	4b01      	ldr	r3, [pc, #4]	; (8 <DRAW_SetTextColor+0x8>)
   2:	8018      	strh	r0, [r3, #0]
C:\Downloaded Files\Virtual-Com-2\Virtual-Com-2\Project\Virtual_COM_Port\RIDE\CircleOS\src/draw.c:532
}
   4:	4770      	bx	lr
   6:	bf00      	nop
   8:	00000000 	.word	0x00000000

Disassembly of section .text.DRAW_GetBGndColor:

00000000 <DRAW_GetBGndColor>:
DRAW_GetBGndColor():
C:\Downloaded Files\Virtual-Com-2\Virtual-Com-2\Project\Virtual_COM_Port\RIDE\CircleOS\src/draw.c:550
**/
/******************************************************************************/
color_t DRAW_GetBGndColor( void )
{
    return BGndColor;
}
   0:	4b01      	ldr	r3, [pc, #4]	; (8 <DRAW_GetBGndColor+0x8>)
   2:	8818      	ldrh	r0, [r3, #0]
   4:	4770      	bx	lr
   6:	bf00      	nop
   8:	00000000 	.word	0x00000000

Disassembly of section .text.DRAW_SetBGndColor:

00000000 <DRAW_SetBGndColor>:
DRAW_SetBGndColor():
C:\Downloaded Files\Virtual-Com-2\Virtual-Com-2\Project\Virtual_COM_Port\RIDE\CircleOS\src/draw.c:567
*
**/
/******************************************************************************/
void DRAW_SetBGndColor( color_t Color )
{
    BGndColor = Color;
   0:	4b01      	ldr	r3, [pc, #4]	; (8 <DRAW_SetBGndColor+0x8>)
   2:	8018      	strh	r0, [r3, #0]
C:\Downloaded Files\Virtual-Com-2\Virtual-Com-2\Project\Virtual_COM_Port\RIDE\CircleOS\src/draw.c:568
}
   4:	4770      	bx	lr
   6:	bf00      	nop
   8:	00000000 	.word	0x00000000

Disassembly of section .text.DRAW_SetLogoBW:

00000000 <DRAW_SetLogoBW>:
DRAW_SetLogoBW():
C:\Downloaded Files\Virtual-Com-2\Virtual-Com-2\Project\Virtual_COM_Port\RIDE\CircleOS\src/draw.c:619
*
**/
/******************************************************************************/
void DRAW_SetLogoBW( void )
{
    LCD_SetLogoBW();
   0:	f7ff bffe 	b.w	0 <LCD_SetLogoBW>

Disassembly of section .text.DRAW_SetImageSel:

00000000 <DRAW_SetImageSel>:
DRAW_SetImageSel():
C:\Downloaded Files\Virtual-Com-2\Virtual-Com-2\Project\Virtual_COM_Port\RIDE\CircleOS\src/draw.c:673
*  @warning       The (0x0) point in on the low left corner.
*
**/
/******************************************************************************/
void DRAW_SetImageSel( const color_t* imageptr, coord_t x, coord_t y, coord_t width, coord_t height, color_t oldBgndColor, color_t newBgndColor )
{
   0:	e92d 4ff0 	stmdb	sp!, {r4, r5, r6, r7, r8, r9, sl, fp, lr}
   4:	b087      	sub	sp, #28
   6:	4692      	mov	sl, r2
   8:	4698      	mov	r8, r3
   a:	f9bd 9040 	ldrsh.w	r9, [sp, #64]	; 0x40
   e:	f8bd 7044 	ldrh.w	r7, [sp, #68]	; 0x44
  12:	f8bd 6048 	ldrh.w	r6, [sp, #72]	; 0x48
C:\Downloaded Files\Virtual-Com-2\Virtual-Com-2\Project\Virtual_COM_Port\RIDE\CircleOS\src/draw.c:681
    color_t color;
    color_t* imagetemp;
    u8* color_table;
    Rotate_H12_V_Match_TypeDef OrientationSave;

    if ( imageptr )
  16:	4605      	mov	r5, r0
  18:	2800      	cmp	r0, #0
  1a:	f000 8135 	beq.w	288 <DRAW_SetImageSel+0x288>
C:\Downloaded Files\Virtual-Com-2\Virtual-Com-2\Project\Virtual_COM_Port\RIDE\CircleOS\src/draw.c:687
    {
        j = width * height; // pixel counter
        //TODO ASSERT((u32)width * height < 0xFFFF);    // Ensure i can be a short

        // BMP header test
        if ( (imageptr[0] == 0x424D) && (imageptr[3] == 0) )
  1e:	8802      	ldrh	r2, [r0, #0]
C:\Downloaded Files\Virtual-Com-2\Virtual-Com-2\Project\Virtual_COM_Port\RIDE\CircleOS\src/draw.c:683
    u8* color_table;
    Rotate_H12_V_Match_TypeDef OrientationSave;

    if ( imageptr )
    {
        j = width * height; // pixel counter
  20:	fb03 f409 	mul.w	r4, r3, r9
C:\Downloaded Files\Virtual-Com-2\Virtual-Com-2\Project\Virtual_COM_Port\RIDE\CircleOS\src/draw.c:687
        //TODO ASSERT((u32)width * height < 0xFFFF);    // Ensure i can be a short

        // BMP header test
        if ( (imageptr[0] == 0x424D) && (imageptr[3] == 0) )
  24:	f244 234d 	movw	r3, #16973	; 0x424d
  28:	429a      	cmp	r2, r3
  2a:	f040 8106 	bne.w	23a <DRAW_SetImageSel+0x23a>
  2e:	f8b0 b006 	ldrh.w	fp, [r0, #6]
  32:	f1bb 0f00 	cmp.w	fp, #0
  36:	f040 8100 	bne.w	23a <DRAW_SetImageSel+0x23a>
C:\Downloaded Files\Virtual-Com-2\Virtual-Com-2\Project\Virtual_COM_Port\RIDE\CircleOS\src/draw.c:690
        {
            // Regular BMP file
            OrientationSave = LCD_GetScreenOrientation();
  3a:	9101      	str	r1, [sp, #4]
  3c:	f7ff fffe 	bl	0 <LCD_GetScreenOrientation>
C:\Downloaded Files\Virtual-Com-2\Virtual-Com-2\Project\Virtual_COM_Port\RIDE\CircleOS\src/draw.c:691
            imagetemp = (color_t*)(imageptr) + (imageptr[5]>>9) + ((imageptr[5]&0xff)<<7) ; // Offset of the image (header size)
  40:	896b      	ldrh	r3, [r5, #10]
C:\Downloaded Files\Virtual-Com-2\Virtual-Com-2\Project\Virtual_COM_Port\RIDE\CircleOS\src/draw.c:690

        // BMP header test
        if ( (imageptr[0] == 0x424D) && (imageptr[3] == 0) )
        {
            // Regular BMP file
            OrientationSave = LCD_GetScreenOrientation();
  42:	9003      	str	r0, [sp, #12]
C:\Downloaded Files\Virtual-Com-2\Virtual-Com-2\Project\Virtual_COM_Port\RIDE\CircleOS\src/draw.c:691
            imagetemp = (color_t*)(imageptr) + (imageptr[5]>>9) + ((imageptr[5]&0xff)<<7) ; // Offset of the image (header size)
  44:	f003 02ff 	and.w	r2, r3, #255	; 0xff
  48:	01d2      	lsls	r2, r2, #7
  4a:	eb02 2353 	add.w	r3, r2, r3, lsr #9
C:\Downloaded Files\Virtual-Com-2\Virtual-Com-2\Project\Virtual_COM_Port\RIDE\CircleOS\src/draw.c:693

            LCD_SetScreenOrientation(OrientationSave+4); // Change to V*BMP orientation
  4e:	3004      	adds	r0, #4
C:\Downloaded Files\Virtual-Com-2\Virtual-Com-2\Project\Virtual_COM_Port\RIDE\CircleOS\src/draw.c:691
        // BMP header test
        if ( (imageptr[0] == 0x424D) && (imageptr[3] == 0) )
        {
            // Regular BMP file
            OrientationSave = LCD_GetScreenOrientation();
            imagetemp = (color_t*)(imageptr) + (imageptr[5]>>9) + ((imageptr[5]&0xff)<<7) ; // Offset of the image (header size)
  50:	eb05 0343 	add.w	r3, r5, r3, lsl #1
C:\Downloaded Files\Virtual-Com-2\Virtual-Com-2\Project\Virtual_COM_Port\RIDE\CircleOS\src/draw.c:693

            LCD_SetScreenOrientation(OrientationSave+4); // Change to V*BMP orientation
  54:	b2c0      	uxtb	r0, r0
C:\Downloaded Files\Virtual-Com-2\Virtual-Com-2\Project\Virtual_COM_Port\RIDE\CircleOS\src/draw.c:691
        // BMP header test
        if ( (imageptr[0] == 0x424D) && (imageptr[3] == 0) )
        {
            // Regular BMP file
            OrientationSave = LCD_GetScreenOrientation();
            imagetemp = (color_t*)(imageptr) + (imageptr[5]>>9) + ((imageptr[5]&0xff)<<7) ; // Offset of the image (header size)
  56:	9302      	str	r3, [sp, #8]
C:\Downloaded Files\Virtual-Com-2\Virtual-Com-2\Project\Virtual_COM_Port\RIDE\CircleOS\src/draw.c:693

            LCD_SetScreenOrientation(OrientationSave+4); // Change to V*BMP orientation
  58:	f7ff fffe 	bl	0 <LCD_SetScreenOrientation>
C:\Downloaded Files\Virtual-Com-2\Virtual-Com-2\Project\Virtual_COM_Port\RIDE\CircleOS\src/draw.c:694
            LCD_SetRect_For_Cmd( x, y, width, height );
  5c:	9901      	ldr	r1, [sp, #4]
  5e:	4642      	mov	r2, r8
  60:	4608      	mov	r0, r1
  62:	464b      	mov	r3, r9
  64:	4651      	mov	r1, sl
  66:	f7ff fffe 	bl	0 <LCD_SetRect_For_Cmd>
C:\Downloaded Files\Virtual-Com-2\Virtual-Com-2\Project\Virtual_COM_Port\RIDE\CircleOS\src/draw.c:695
            LCD_SendLCDCmd_RAM_Access();
  6a:	f7ff fffe 	bl	0 <LCD_SendLCDCmd_RAM_Access>
C:\Downloaded Files\Virtual-Com-2\Virtual-Com-2\Project\Virtual_COM_Port\RIDE\CircleOS\src/draw.c:697

            switch( ((imageptr[14]>>8) + (imageptr[15]&0xff00)) ) // colour depth + compression methode
  6e:	8beb      	ldrh	r3, [r5, #30]
  70:	8baa      	ldrh	r2, [r5, #28]
  72:	f403 437f 	and.w	r3, r3, #65280	; 0xff00
  76:	eb03 2312 	add.w	r3, r3, r2, lsr #8
  7a:	2b10      	cmp	r3, #16
  7c:	d00b      	beq.n	96 <DRAW_SetImageSel+0x96>
  7e:	dc03      	bgt.n	88 <DRAW_SetImageSel+0x88>
  80:	2b08      	cmp	r3, #8
  82:	f040 80d2 	bne.w	22a <DRAW_SetImageSel+0x22a>
  86:	e022      	b.n	ce <DRAW_SetImageSel+0xce>
  88:	f5b3 7f84 	cmp.w	r3, #264	; 0x108
  8c:	d04b      	beq.n	126 <DRAW_SetImageSel+0x126>
  8e:	f5b3 7f44 	cmp.w	r3, #784	; 0x310
  92:	f040 80ca 	bne.w	22a <DRAW_SetImageSel+0x22a>
C:\Downloaded Files\Virtual-Com-2\Virtual-Com-2\Project\Virtual_COM_Port\RIDE\CircleOS\src/draw.c:712
                            LCD_SendLCDData(( imageptr[i] >> 8 ) & 0xff );
                        }
                        else
                        {
                            LCD_SendLCDData( newBgndColor & 0xff );
                            LCD_SendLCDData(( newBgndColor >> 8 ) & 0xff );
  96:	ea4f 2916 	mov.w	r9, r6, lsr #8
C:\Downloaded Files\Virtual-Com-2\Virtual-Com-2\Project\Virtual_COM_Port\RIDE\CircleOS\src/draw.c:702
            switch( ((imageptr[14]>>8) + (imageptr[15]&0xff00)) ) // colour depth + compression methode
            {
                case 0x0010:    // 16 bits and no compression
                case 0x0310:
                    imageptr += 0x36;
                    for ( i = 0; i < j ; i++ )
  9a:	f04f 0800 	mov.w	r8, #0
  9e:	e013      	b.n	c8 <DRAW_SetImageSel+0xc8>
C:\Downloaded Files\Virtual-Com-2\Virtual-Com-2\Project\Virtual_COM_Port\RIDE\CircleOS\src/draw.c:704
                    {
                        if ( imageptr[i] != oldBgndColor )
  a0:	f8b5 006c 	ldrh.w	r0, [r5, #108]	; 0x6c
  a4:	42b8      	cmp	r0, r7
  a6:	d006      	beq.n	b6 <DRAW_SetImageSel+0xb6>
C:\Downloaded Files\Virtual-Com-2\Virtual-Com-2\Project\Virtual_COM_Port\RIDE\CircleOS\src/draw.c:706
                        {
                            LCD_SendLCDData( imageptr[i] & 0xff );
  a8:	b2c0      	uxtb	r0, r0
  aa:	f7ff fffe 	bl	0 <LCD_SendLCDData>
C:\Downloaded Files\Virtual-Com-2\Virtual-Com-2\Project\Virtual_COM_Port\RIDE\CircleOS\src/draw.c:707
                            LCD_SendLCDData(( imageptr[i] >> 8 ) & 0xff );
  ae:	f8b5 006c 	ldrh.w	r0, [r5, #108]	; 0x6c
  b2:	0a00      	lsrs	r0, r0, #8
  b4:	e003      	b.n	be <DRAW_SetImageSel+0xbe>
C:\Downloaded Files\Virtual-Com-2\Virtual-Com-2\Project\Virtual_COM_Port\RIDE\CircleOS\src/draw.c:711
                        }
                        else
                        {
                            LCD_SendLCDData( newBgndColor & 0xff );
  b6:	b2f0      	uxtb	r0, r6
  b8:	f7ff fffe 	bl	0 <LCD_SendLCDData>
C:\Downloaded Files\Virtual-Com-2\Virtual-Com-2\Project\Virtual_COM_Port\RIDE\CircleOS\src/draw.c:712
                            LCD_SendLCDData(( newBgndColor >> 8 ) & 0xff );
  bc:	4648      	mov	r0, r9
  be:	f7ff fffe 	bl	0 <LCD_SendLCDData>
  c2:	f108 0801 	add.w	r8, r8, #1
  c6:	3502      	adds	r5, #2
C:\Downloaded Files\Virtual-Com-2\Virtual-Com-2\Project\Virtual_COM_Port\RIDE\CircleOS\src/draw.c:702
            switch( ((imageptr[14]>>8) + (imageptr[15]&0xff00)) ) // colour depth + compression methode
            {
                case 0x0010:    // 16 bits and no compression
                case 0x0310:
                    imageptr += 0x36;
                    for ( i = 0; i < j ; i++ )
  c8:	45a0      	cmp	r8, r4
  ca:	dbe9      	blt.n	a0 <DRAW_SetImageSel+0xa0>
  cc:	e0ad      	b.n	22a <DRAW_SetImageSel+0x22a>
C:\Downloaded Files\Virtual-Com-2\Virtual-Com-2\Project\Virtual_COM_Port\RIDE\CircleOS\src/draw.c:718
                        }
                    }
                    break;
                
                case 0x0008:    // 8 bits (256 colors) and no compression
                    color_table = (u8*)imageptr + 0x36;
  ce:	3536      	adds	r5, #54	; 0x36
C:\Downloaded Files\Virtual-Com-2\Virtual-Com-2\Project\Virtual_COM_Port\RIDE\CircleOS\src/draw.c:719
                    for ( i = 0; (2*i) < j ; i++ )
  d0:	e026      	b.n	120 <DRAW_SetImageSel+0x120>
C:\Downloaded Files\Virtual-Com-2\Virtual-Com-2\Project\Virtual_COM_Port\RIDE\CircleOS\src/draw.c:721
                    {
                        color = DRAW_GetIndexedColorBMP( color_table, 4*(imagetemp[i]>>8) );
  d2:	9a02      	ldr	r2, [sp, #8]
  d4:	4628      	mov	r0, r5
  d6:	f832 100b 	ldrh.w	r1, [r2, fp]
  da:	0a09      	lsrs	r1, r1, #8
  dc:	0089      	lsls	r1, r1, #2
  de:	f7ff fffe 	bl	0 <DRAW_SetImageSel>
C:\Downloaded Files\Virtual-Com-2\Virtual-Com-2\Project\Virtual_COM_Port\RIDE\CircleOS\src/draw.c:723
                        if ( color == oldBgndColor )
                            color = newBgndColor;
  e2:	42b8      	cmp	r0, r7
  e4:	bf14      	ite	ne
  e6:	4680      	movne	r8, r0
  e8:	46b0      	moveq	r8, r6
C:\Downloaded Files\Virtual-Com-2\Virtual-Com-2\Project\Virtual_COM_Port\RIDE\CircleOS\src/draw.c:724
                        LCD_SendLCDData( color & 0xff );
  ea:	fa5f f088 	uxtb.w	r0, r8
  ee:	f7ff fffe 	bl	0 <LCD_SendLCDData>
C:\Downloaded Files\Virtual-Com-2\Virtual-Com-2\Project\Virtual_COM_Port\RIDE\CircleOS\src/draw.c:725
                        LCD_SendLCDData(( color >> 8 ) & 0xff );
  f2:	ea4f 2018 	mov.w	r0, r8, lsr #8
  f6:	b2c0      	uxtb	r0, r0
  f8:	f7ff fffe 	bl	0 <LCD_SendLCDData>
C:\Downloaded Files\Virtual-Com-2\Virtual-Com-2\Project\Virtual_COM_Port\RIDE\CircleOS\src/draw.c:726
                        color = DRAW_GetIndexedColorBMP( color_table, 4*(imagetemp[i]&0xff) );
  fc:	9b02      	ldr	r3, [sp, #8]
  fe:	4628      	mov	r0, r5
 100:	f813 100b 	ldrb.w	r1, [r3, fp]
C:\Downloaded Files\Virtual-Com-2\Virtual-Com-2\Project\Virtual_COM_Port\RIDE\CircleOS\src/draw.c:728
                        LCD_SendLCDData( color & 0xff );
                        LCD_SendLCDData(( color >> 8 ) & 0xff );
 104:	f10b 0b02 	add.w	fp, fp, #2
C:\Downloaded Files\Virtual-Com-2\Virtual-Com-2\Project\Virtual_COM_Port\RIDE\CircleOS\src/draw.c:726
                        color = DRAW_GetIndexedColorBMP( color_table, 4*(imagetemp[i]>>8) );
                        if ( color == oldBgndColor )
                            color = newBgndColor;
                        LCD_SendLCDData( color & 0xff );
                        LCD_SendLCDData(( color >> 8 ) & 0xff );
                        color = DRAW_GetIndexedColorBMP( color_table, 4*(imagetemp[i]&0xff) );
 108:	0089      	lsls	r1, r1, #2
 10a:	f7ff fffe 	bl	0 <DRAW_SetImageSel>
 10e:	4680      	mov	r8, r0
C:\Downloaded Files\Virtual-Com-2\Virtual-Com-2\Project\Virtual_COM_Port\RIDE\CircleOS\src/draw.c:727
                        LCD_SendLCDData( color & 0xff );
 110:	b2c0      	uxtb	r0, r0
 112:	f7ff fffe 	bl	0 <LCD_SendLCDData>
C:\Downloaded Files\Virtual-Com-2\Virtual-Com-2\Project\Virtual_COM_Port\RIDE\CircleOS\src/draw.c:728
                        LCD_SendLCDData(( color >> 8 ) & 0xff );
 116:	ea4f 2018 	mov.w	r0, r8, lsr #8
 11a:	b2c0      	uxtb	r0, r0
 11c:	f7ff fffe 	bl	0 <LCD_SendLCDData>
C:\Downloaded Files\Virtual-Com-2\Virtual-Com-2\Project\Virtual_COM_Port\RIDE\CircleOS\src/draw.c:719
                    }
                    break;
                
                case 0x0008:    // 8 bits (256 colors) and no compression
                    color_table = (u8*)imageptr + 0x36;
                    for ( i = 0; (2*i) < j ; i++ )
 120:	45a3      	cmp	fp, r4
 122:	dbd6      	blt.n	d2 <DRAW_SetImageSel+0xd2>
 124:	e081      	b.n	22a <DRAW_SetImageSel+0x22a>
C:\Downloaded Files\Virtual-Com-2\Virtual-Com-2\Project\Virtual_COM_Port\RIDE\CircleOS\src/draw.c:750
                                color = newBgndColor;
                                while ( (j%width)!=0 ) // fill with the background color to the end of line
                                    {
                                    j--; // remove each pixel from the pixel counter
                                    LCD_SendLCDData( color & 0xff );
                                    LCD_SendLCDData(( color >> 8 ) & 0xff );
 126:	0a32      	lsrs	r2, r6, #8
C:\Downloaded Files\Virtual-Com-2\Virtual-Com-2\Project\Virtual_COM_Port\RIDE\CircleOS\src/draw.c:733
                        LCD_SendLCDData(( color >> 8 ) & 0xff );
                    }
                    break;
                
                case 0x0108:    // 8 bits (256 colors) and RLE compression
                    color_table = (u8*)imageptr + 0x36;
 128:	f105 0a36 	add.w	sl, r5, #54	; 0x36
C:\Downloaded Files\Virtual-Com-2\Virtual-Com-2\Project\Virtual_COM_Port\RIDE\CircleOS\src/draw.c:750
                                color = newBgndColor;
                                while ( (j%width)!=0 ) // fill with the background color to the end of line
                                    {
                                    j--; // remove each pixel from the pixel counter
                                    LCD_SendLCDData( color & 0xff );
                                    LCD_SendLCDData(( color >> 8 ) & 0xff );
 12c:	9204      	str	r2, [sp, #16]
C:\Downloaded Files\Virtual-Com-2\Virtual-Com-2\Project\Virtual_COM_Port\RIDE\CircleOS\src/draw.c:734
                    }
                    break;
                
                case 0x0108:    // 8 bits (256 colors) and RLE compression
                    color_table = (u8*)imageptr + 0x36;
                    i = 0; // file cursor (in words)
 12e:	46d9      	mov	r9, fp
C:\Downloaded Files\Virtual-Com-2\Virtual-Com-2\Project\Virtual_COM_Port\RIDE\CircleOS\src/draw.c:735
                    while ( j > 0 ) // while there is still pixels to write (j : amount of remaining pixels)
 130:	e079      	b.n	226 <DRAW_SetImageSel+0x226>
C:\Downloaded Files\Virtual-Com-2\Virtual-Com-2\Project\Virtual_COM_Port\RIDE\CircleOS\src/draw.c:738
                        {
                    
                        if ( (imagetemp[i]>>8) == 0 )
 132:	9a02      	ldr	r2, [sp, #8]
 134:	fa0f f389 	sxth.w	r3, r9
 138:	f832 5013 	ldrh.w	r5, [r2, r3, lsl #1]
 13c:	ea5f 2b15 	movs.w	fp, r5, lsr #8
 140:	f005 05ff 	and.w	r5, r5, #255	; 0xff
 144:	d14d      	bne.n	1e2 <DRAW_SetImageSel+0x1e2>
C:\Downloaded Files\Virtual-Com-2\Virtual-Com-2\Project\Virtual_COM_Port\RIDE\CircleOS\src/draw.c:741
                            {
                            k = imagetemp[i] & 0xff;
                            i++; // move the file cursor
 146:	f109 0901 	add.w	r9, r9, #1
C:\Downloaded Files\Virtual-Com-2\Virtual-Com-2\Project\Virtual_COM_Port\RIDE\CircleOS\src/draw.c:740
                    while ( j > 0 ) // while there is still pixels to write (j : amount of remaining pixels)
                        {
                    
                        if ( (imagetemp[i]>>8) == 0 )
                            {
                            k = imagetemp[i] & 0xff;
 14a:	b2ad      	uxth	r5, r5
C:\Downloaded Files\Virtual-Com-2\Virtual-Com-2\Project\Virtual_COM_Port\RIDE\CircleOS\src/draw.c:741
                            i++; // move the file cursor
 14c:	fa1f f989 	uxth.w	r9, r9
C:\Downloaded Files\Virtual-Com-2\Virtual-Com-2\Project\Virtual_COM_Port\RIDE\CircleOS\src/draw.c:743

                            if ( k==0 ) // End of line
 150:	b975      	cbnz	r5, 170 <DRAW_SetImageSel+0x170>
 152:	e006      	b.n	162 <DRAW_SetImageSel+0x162>
C:\Downloaded Files\Virtual-Com-2\Virtual-Com-2\Project\Virtual_COM_Port\RIDE\CircleOS\src/draw.c:749
                                {
                                color = newBgndColor;
                                while ( (j%width)!=0 ) // fill with the background color to the end of line
                                    {
                                    j--; // remove each pixel from the pixel counter
                                    LCD_SendLCDData( color & 0xff );
 154:	b2f0      	uxtb	r0, r6
 156:	f7ff fffe 	bl	0 <LCD_SendLCDData>
C:\Downloaded Files\Virtual-Com-2\Virtual-Com-2\Project\Virtual_COM_Port\RIDE\CircleOS\src/draw.c:750
                                    LCD_SendLCDData(( color >> 8 ) & 0xff );
 15a:	9804      	ldr	r0, [sp, #16]
C:\Downloaded Files\Virtual-Com-2\Virtual-Com-2\Project\Virtual_COM_Port\RIDE\CircleOS\src/draw.c:748
                            if ( k==0 ) // End of line
                                {
                                color = newBgndColor;
                                while ( (j%width)!=0 ) // fill with the background color to the end of line
                                    {
                                    j--; // remove each pixel from the pixel counter
 15c:	3c01      	subs	r4, #1
C:\Downloaded Files\Virtual-Com-2\Virtual-Com-2\Project\Virtual_COM_Port\RIDE\CircleOS\src/draw.c:750
                                    LCD_SendLCDData( color & 0xff );
                                    LCD_SendLCDData(( color >> 8 ) & 0xff );
 15e:	f7ff fffe 	bl	0 <LCD_SendLCDData>
C:\Downloaded Files\Virtual-Com-2\Virtual-Com-2\Project\Virtual_COM_Port\RIDE\CircleOS\src/draw.c:746
                            i++; // move the file cursor

                            if ( k==0 ) // End of line
                                {
                                color = newBgndColor;
                                while ( (j%width)!=0 ) // fill with the background color to the end of line
 162:	fb94 f3f8 	sdiv	r3, r4, r8
 166:	fb08 4313 	mls	r3, r8, r3, r4
 16a:	2b00      	cmp	r3, #0
 16c:	d1f2      	bne.n	154 <DRAW_SetImageSel+0x154>
 16e:	e05a      	b.n	226 <DRAW_SetImageSel+0x226>
C:\Downloaded Files\Virtual-Com-2\Virtual-Com-2\Project\Virtual_COM_Port\RIDE\CircleOS\src/draw.c:754
                                    LCD_SendLCDData( color & 0xff );
                                    LCD_SendLCDData(( color >> 8 ) & 0xff );
                                    }
                                }

                            else if ( k==1) // End of file
 170:	b22b      	sxth	r3, r5
 172:	2b01      	cmp	r3, #1
 174:	d059      	beq.n	22a <DRAW_SetImageSel+0x22a>
C:\Downloaded Files\Virtual-Com-2\Virtual-Com-2\Project\Virtual_COM_Port\RIDE\CircleOS\src/draw.c:760
                                break;
                            else
                                {
                                // If not either end of file or end of line : streak of single values
                                // in this case k is the length of the streak
                                j -= k ; // remove the streak length from the pixel counter
 176:	1ae4      	subs	r4, r4, r3
C:\Downloaded Files\Virtual-Com-2\Virtual-Com-2\Project\Virtual_COM_Port\RIDE\CircleOS\src/draw.c:672
*
*  @warning       The (0x0) point in on the low left corner.
*
**/
/******************************************************************************/
void DRAW_SetImageSel( const color_t* imageptr, coord_t x, coord_t y, coord_t width, coord_t height, color_t oldBgndColor, color_t newBgndColor )
 178:	9b02      	ldr	r3, [sp, #8]
 17a:	fa0f fb89 	sxth.w	fp, r9
 17e:	eb03 0b4b 	add.w	fp, r3, fp, lsl #1
C:\Downloaded Files\Virtual-Com-2\Virtual-Com-2\Project\Virtual_COM_Port\RIDE\CircleOS\src/draw.c:763
                                // If not either end of file or end of line : streak of single values
                                // in this case k is the length of the streak
                                j -= k ; // remove the streak length from the pixel counter
                                while ( k > 0)
                                    {
                                    color = DRAW_GetIndexedColorBMP( color_table , 4*(imagetemp[i]>>8) );
 182:	f83b 1b02 	ldrh.w	r1, [fp], #2
 186:	4650      	mov	r0, sl
 188:	0a09      	lsrs	r1, r1, #8
 18a:	0089      	lsls	r1, r1, #2
 18c:	f7ff fffe 	bl	0 <DRAW_SetImageSel>
 190:	4603      	mov	r3, r0
C:\Downloaded Files\Virtual-Com-2\Virtual-Com-2\Project\Virtual_COM_Port\RIDE\CircleOS\src/draw.c:764
                                    LCD_SendLCDData( color & 0xff );
 192:	b2c0      	uxtb	r0, r0
 194:	9301      	str	r3, [sp, #4]
 196:	f7ff fffe 	bl	0 <LCD_SendLCDData>
C:\Downloaded Files\Virtual-Com-2\Virtual-Com-2\Project\Virtual_COM_Port\RIDE\CircleOS\src/draw.c:765
                                    LCD_SendLCDData(( color >> 8 ) & 0xff );
 19a:	9b01      	ldr	r3, [sp, #4]
C:\Downloaded Files\Virtual-Com-2\Virtual-Com-2\Project\Virtual_COM_Port\RIDE\CircleOS\src/draw.c:766
                                    k--;
 19c:	3d01      	subs	r5, #1
C:\Downloaded Files\Virtual-Com-2\Virtual-Com-2\Project\Virtual_COM_Port\RIDE\CircleOS\src/draw.c:765
                                j -= k ; // remove the streak length from the pixel counter
                                while ( k > 0)
                                    {
                                    color = DRAW_GetIndexedColorBMP( color_table , 4*(imagetemp[i]>>8) );
                                    LCD_SendLCDData( color & 0xff );
                                    LCD_SendLCDData(( color >> 8 ) & 0xff );
 19e:	0a1b      	lsrs	r3, r3, #8
 1a0:	b2d8      	uxtb	r0, r3
C:\Downloaded Files\Virtual-Com-2\Virtual-Com-2\Project\Virtual_COM_Port\RIDE\CircleOS\src/draw.c:766
                                    k--;
 1a2:	b2ad      	uxth	r5, r5
C:\Downloaded Files\Virtual-Com-2\Virtual-Com-2\Project\Virtual_COM_Port\RIDE\CircleOS\src/draw.c:765
                                j -= k ; // remove the streak length from the pixel counter
                                while ( k > 0)
                                    {
                                    color = DRAW_GetIndexedColorBMP( color_table , 4*(imagetemp[i]>>8) );
                                    LCD_SendLCDData( color & 0xff );
                                    LCD_SendLCDData(( color >> 8 ) & 0xff );
 1a4:	f7ff fffe 	bl	0 <LCD_SendLCDData>
C:\Downloaded Files\Virtual-Com-2\Virtual-Com-2\Project\Virtual_COM_Port\RIDE\CircleOS\src/draw.c:767
                                    k--;
                                    if ( k > 0 )
 1a8:	b1a5      	cbz	r5, 1d4 <DRAW_SetImageSel+0x1d4>
C:\Downloaded Files\Virtual-Com-2\Virtual-Com-2\Project\Virtual_COM_Port\RIDE\CircleOS\src/draw.c:769
                                        {
                                        color = DRAW_GetIndexedColorBMP( color_table , 4*(imagetemp[i]&0xff) );
 1aa:	f81b 1c02 	ldrb.w	r1, [fp, #-2]
 1ae:	4650      	mov	r0, sl
 1b0:	0089      	lsls	r1, r1, #2
 1b2:	f7ff fffe 	bl	0 <DRAW_SetImageSel>
C:\Downloaded Files\Virtual-Com-2\Virtual-Com-2\Project\Virtual_COM_Port\RIDE\CircleOS\src/draw.c:771
                                        if ( color == oldBgndColor ) // if the color should be replaced
                                            color = newBgndColor;
 1b6:	42b8      	cmp	r0, r7
 1b8:	bf14      	ite	ne
 1ba:	4603      	movne	r3, r0
 1bc:	4633      	moveq	r3, r6
C:\Downloaded Files\Virtual-Com-2\Virtual-Com-2\Project\Virtual_COM_Port\RIDE\CircleOS\src/draw.c:772
                                        LCD_SendLCDData( color & 0xff );
 1be:	b2d8      	uxtb	r0, r3
 1c0:	9301      	str	r3, [sp, #4]
 1c2:	f7ff fffe 	bl	0 <LCD_SendLCDData>
C:\Downloaded Files\Virtual-Com-2\Virtual-Com-2\Project\Virtual_COM_Port\RIDE\CircleOS\src/draw.c:773
                                        LCD_SendLCDData(( color >> 8 ) & 0xff );
 1c6:	9b01      	ldr	r3, [sp, #4]
C:\Downloaded Files\Virtual-Com-2\Virtual-Com-2\Project\Virtual_COM_Port\RIDE\CircleOS\src/draw.c:774
                                        k--;
 1c8:	3d01      	subs	r5, #1
C:\Downloaded Files\Virtual-Com-2\Virtual-Com-2\Project\Virtual_COM_Port\RIDE\CircleOS\src/draw.c:773
                                        {
                                        color = DRAW_GetIndexedColorBMP( color_table , 4*(imagetemp[i]&0xff) );
                                        if ( color == oldBgndColor ) // if the color should be replaced
                                            color = newBgndColor;
                                        LCD_SendLCDData( color & 0xff );
                                        LCD_SendLCDData(( color >> 8 ) & 0xff );
 1ca:	0a1b      	lsrs	r3, r3, #8
 1cc:	b2d8      	uxtb	r0, r3
 1ce:	f7ff fffe 	bl	0 <LCD_SendLCDData>
C:\Downloaded Files\Virtual-Com-2\Virtual-Com-2\Project\Virtual_COM_Port\RIDE\CircleOS\src/draw.c:774
                                        k--;
 1d2:	b2ad      	uxth	r5, r5
C:\Downloaded Files\Virtual-Com-2\Virtual-Com-2\Project\Virtual_COM_Port\RIDE\CircleOS\src/draw.c:776
                                        }
                                    i++; // move the file cursor
 1d4:	f109 0901 	add.w	r9, r9, #1
 1d8:	fa1f f989 	uxth.w	r9, r9
C:\Downloaded Files\Virtual-Com-2\Virtual-Com-2\Project\Virtual_COM_Port\RIDE\CircleOS\src/draw.c:761
                            else
                                {
                                // If not either end of file or end of line : streak of single values
                                // in this case k is the length of the streak
                                j -= k ; // remove the streak length from the pixel counter
                                while ( k > 0)
 1dc:	2d00      	cmp	r5, #0
 1de:	d1d0      	bne.n	182 <DRAW_SetImageSel+0x182>
 1e0:	e021      	b.n	226 <DRAW_SetImageSel+0x226>
C:\Downloaded Files\Virtual-Com-2\Virtual-Com-2\Project\Virtual_COM_Port\RIDE\CircleOS\src/draw.c:783
                                }
                            } // End of : if ( (imagetemp[i]>>8) == 0 )
                        else
                            {
                            // Streak of same values
                            color = DRAW_GetIndexedColorBMP( color_table , 4*(imagetemp[i]&0xff) );
 1e2:	00a9      	lsls	r1, r5, #2
 1e4:	4650      	mov	r0, sl
 1e6:	f7ff fffe 	bl	0 <DRAW_SetImageSel>
C:\Downloaded Files\Virtual-Com-2\Virtual-Com-2\Project\Virtual_COM_Port\RIDE\CircleOS\src/draw.c:785
                            if ( color == oldBgndColor ) // if the color should be replaced
                                color = newBgndColor;
 1ea:	42b8      	cmp	r0, r7
 1ec:	bf14      	ite	ne
 1ee:	4605      	movne	r5, r0
 1f0:	4635      	moveq	r5, r6
C:\Downloaded Files\Virtual-Com-2\Virtual-Com-2\Project\Virtual_COM_Port\RIDE\CircleOS\src/draw.c:791
                            k = imagetemp[i]>>8; // length of the streak
                            j -= k; // remove the streak length from the pixel counter
                            for(; k>0 ; k--)
                                {
                                LCD_SendLCDData( color & 0xff );
                                LCD_SendLCDData(( color >> 8 ) & 0xff );
 1f2:	0a2b      	lsrs	r3, r5, #8
C:\Downloaded Files\Virtual-Com-2\Virtual-Com-2\Project\Virtual_COM_Port\RIDE\CircleOS\src/draw.c:786
                            {
                            // Streak of same values
                            color = DRAW_GetIndexedColorBMP( color_table , 4*(imagetemp[i]&0xff) );
                            if ( color == oldBgndColor ) // if the color should be replaced
                                color = newBgndColor;
                            k = imagetemp[i]>>8; // length of the streak
 1f4:	fa1f fb8b 	uxth.w	fp, fp
C:\Downloaded Files\Virtual-Com-2\Virtual-Com-2\Project\Virtual_COM_Port\RIDE\CircleOS\src/draw.c:791
                            j -= k; // remove the streak length from the pixel counter
                            for(; k>0 ; k--)
                                {
                                LCD_SendLCDData( color & 0xff );
                                LCD_SendLCDData(( color >> 8 ) & 0xff );
 1f8:	b2db      	uxtb	r3, r3
C:\Downloaded Files\Virtual-Com-2\Virtual-Com-2\Project\Virtual_COM_Port\RIDE\CircleOS\src/draw.c:787
                            // Streak of same values
                            color = DRAW_GetIndexedColorBMP( color_table , 4*(imagetemp[i]&0xff) );
                            if ( color == oldBgndColor ) // if the color should be replaced
                                color = newBgndColor;
                            k = imagetemp[i]>>8; // length of the streak
                            j -= k; // remove the streak length from the pixel counter
 1fa:	ebcb 0404 	rsb	r4, fp, r4
C:\Downloaded Files\Virtual-Com-2\Virtual-Com-2\Project\Virtual_COM_Port\RIDE\CircleOS\src/draw.c:791
                            for(; k>0 ; k--)
                                {
                                LCD_SendLCDData( color & 0xff );
                                LCD_SendLCDData(( color >> 8 ) & 0xff );
 1fe:	9305      	str	r3, [sp, #20]
C:\Downloaded Files\Virtual-Com-2\Virtual-Com-2\Project\Virtual_COM_Port\RIDE\CircleOS\src/draw.c:788
                            color = DRAW_GetIndexedColorBMP( color_table , 4*(imagetemp[i]&0xff) );
                            if ( color == oldBgndColor ) // if the color should be replaced
                                color = newBgndColor;
                            k = imagetemp[i]>>8; // length of the streak
                            j -= k; // remove the streak length from the pixel counter
                            for(; k>0 ; k--)
 200:	e009      	b.n	216 <DRAW_SetImageSel+0x216>
C:\Downloaded Files\Virtual-Com-2\Virtual-Com-2\Project\Virtual_COM_Port\RIDE\CircleOS\src/draw.c:790
                                {
                                LCD_SendLCDData( color & 0xff );
 202:	b2e8      	uxtb	r0, r5
 204:	f7ff fffe 	bl	0 <LCD_SendLCDData>
C:\Downloaded Files\Virtual-Com-2\Virtual-Com-2\Project\Virtual_COM_Port\RIDE\CircleOS\src/draw.c:791
                                LCD_SendLCDData(( color >> 8 ) & 0xff );
 208:	9805      	ldr	r0, [sp, #20]
 20a:	f7ff fffe 	bl	0 <LCD_SendLCDData>
C:\Downloaded Files\Virtual-Com-2\Virtual-Com-2\Project\Virtual_COM_Port\RIDE\CircleOS\src/draw.c:788
                            color = DRAW_GetIndexedColorBMP( color_table , 4*(imagetemp[i]&0xff) );
                            if ( color == oldBgndColor ) // if the color should be replaced
                                color = newBgndColor;
                            k = imagetemp[i]>>8; // length of the streak
                            j -= k; // remove the streak length from the pixel counter
                            for(; k>0 ; k--)
 20e:	f10b 3bff 	add.w	fp, fp, #4294967295
 212:	fa1f fb8b 	uxth.w	fp, fp
 216:	fa0f f38b 	sxth.w	r3, fp
 21a:	2b00      	cmp	r3, #0
 21c:	dcf1      	bgt.n	202 <DRAW_SetImageSel+0x202>
C:\Downloaded Files\Virtual-Com-2\Virtual-Com-2\Project\Virtual_COM_Port\RIDE\CircleOS\src/draw.c:793
                                {
                                LCD_SendLCDData( color & 0xff );
                                LCD_SendLCDData(( color >> 8 ) & 0xff );
                                }
                            i++; // move the file cursor
 21e:	f109 0901 	add.w	r9, r9, #1
 222:	fa1f f989 	uxth.w	r9, r9
C:\Downloaded Files\Virtual-Com-2\Virtual-Com-2\Project\Virtual_COM_Port\RIDE\CircleOS\src/draw.c:735
                    break;
                
                case 0x0108:    // 8 bits (256 colors) and RLE compression
                    color_table = (u8*)imageptr + 0x36;
                    i = 0; // file cursor (in words)
                    while ( j > 0 ) // while there is still pixels to write (j : amount of remaining pixels)
 226:	2c00      	cmp	r4, #0
 228:	dc83      	bgt.n	132 <DRAW_SetImageSel+0x132>
C:\Downloaded Files\Virtual-Com-2\Virtual-Com-2\Project\Virtual_COM_Port\RIDE\CircleOS\src/draw.c:801
                    break;
                    
                }   // End of : switch( ((imageptr[14]>>8) + (imageptr[15]&0xff00)) )
        
            /* End of select screen area to access.*/
            LCD_SendLCDCmd_RAM_Access_End();
 22a:	f7ff fffe 	bl	0 <LCD_SendLCDCmd_RAM_Access_End>
C:\Downloaded Files\Virtual-Com-2\Virtual-Com-2\Project\Virtual_COM_Port\RIDE\CircleOS\src/draw.c:803
        
            LCD_SetScreenOrientation(OrientationSave);
 22e:	9803      	ldr	r0, [sp, #12]
C:\Downloaded Files\Virtual-Com-2\Virtual-Com-2\Project\Virtual_COM_Port\RIDE\CircleOS\src/draw.c:829
            }
            /* End of select screen area to access.*/
            LCD_SendLCDCmd_RAM_Access_End();
        }
    }
}
 230:	b007      	add	sp, #28
 232:	e8bd 4ff0 	ldmia.w	sp!, {r4, r5, r6, r7, r8, r9, sl, fp, lr}
C:\Downloaded Files\Virtual-Com-2\Virtual-Com-2\Project\Virtual_COM_Port\RIDE\CircleOS\src/draw.c:803
                }   // End of : switch( ((imageptr[14]>>8) + (imageptr[15]&0xff00)) )
        
            /* End of select screen area to access.*/
            LCD_SendLCDCmd_RAM_Access_End();
        
            LCD_SetScreenOrientation(OrientationSave);
 236:	f7ff bffe 	b.w	0 <LCD_SetScreenOrientation>
C:\Downloaded Files\Virtual-Com-2\Virtual-Com-2\Project\Virtual_COM_Port\RIDE\CircleOS\src/draw.c:809
        }
        else
        // Non regular BMP file (old Primer format)
        {
            /* Select screen area to access.*/
            LCD_SetRect_For_Cmd( x, y, width, height );
 23a:	4608      	mov	r0, r1
 23c:	4642      	mov	r2, r8
 23e:	464b      	mov	r3, r9
 240:	4651      	mov	r1, sl
 242:	f7ff fffe 	bl	0 <LCD_SetRect_For_Cmd>
C:\Downloaded Files\Virtual-Com-2\Virtual-Com-2\Project\Virtual_COM_Port\RIDE\CircleOS\src/draw.c:822
                    LCD_SendLCDData(( imageptr[i] >> 8 ) & 0xff );
                }
                else
                {
                    LCD_SendLCDData( newBgndColor & 0xff );
                    LCD_SendLCDData(( newBgndColor >> 8 ) & 0xff );
 246:	ea4f 2916 	mov.w	r9, r6, lsr #8
C:\Downloaded Files\Virtual-Com-2\Virtual-Com-2\Project\Virtual_COM_Port\RIDE\CircleOS\src/draw.c:810
        else
        // Non regular BMP file (old Primer format)
        {
            /* Select screen area to access.*/
            LCD_SetRect_For_Cmd( x, y, width, height );
            LCD_SendLCDCmd_RAM_Access();
 24a:	f7ff fffe 	bl	0 <LCD_SendLCDCmd_RAM_Access>
C:\Downloaded Files\Virtual-Com-2\Virtual-Com-2\Project\Virtual_COM_Port\RIDE\CircleOS\src/draw.c:812

            for ( i = 0; i < j ; i++ )
 24e:	f04f 0800 	mov.w	r8, #0
 252:	e012      	b.n	27a <DRAW_SetImageSel+0x27a>
C:\Downloaded Files\Virtual-Com-2\Virtual-Com-2\Project\Virtual_COM_Port\RIDE\CircleOS\src/draw.c:814
            {
                if ( imageptr[i] != oldBgndColor )
 254:	f835 0b02 	ldrh.w	r0, [r5], #2
 258:	42b8      	cmp	r0, r7
 25a:	d006      	beq.n	26a <DRAW_SetImageSel+0x26a>
C:\Downloaded Files\Virtual-Com-2\Virtual-Com-2\Project\Virtual_COM_Port\RIDE\CircleOS\src/draw.c:816
                {
                    LCD_SendLCDData( imageptr[i] & 0xff );
 25c:	b2c0      	uxtb	r0, r0
 25e:	f7ff fffe 	bl	0 <LCD_SendLCDData>
C:\Downloaded Files\Virtual-Com-2\Virtual-Com-2\Project\Virtual_COM_Port\RIDE\CircleOS\src/draw.c:817
                    LCD_SendLCDData(( imageptr[i] >> 8 ) & 0xff );
 262:	f835 0c02 	ldrh.w	r0, [r5, #-2]
 266:	0a00      	lsrs	r0, r0, #8
 268:	e003      	b.n	272 <DRAW_SetImageSel+0x272>
C:\Downloaded Files\Virtual-Com-2\Virtual-Com-2\Project\Virtual_COM_Port\RIDE\CircleOS\src/draw.c:821
                }
                else
                {
                    LCD_SendLCDData( newBgndColor & 0xff );
 26a:	b2f0      	uxtb	r0, r6
 26c:	f7ff fffe 	bl	0 <LCD_SendLCDData>
C:\Downloaded Files\Virtual-Com-2\Virtual-Com-2\Project\Virtual_COM_Port\RIDE\CircleOS\src/draw.c:822
                    LCD_SendLCDData(( newBgndColor >> 8 ) & 0xff );
 270:	4648      	mov	r0, r9
 272:	f7ff fffe 	bl	0 <LCD_SendLCDData>
 276:	f108 0801 	add.w	r8, r8, #1
C:\Downloaded Files\Virtual-Com-2\Virtual-Com-2\Project\Virtual_COM_Port\RIDE\CircleOS\src/draw.c:812
        {
            /* Select screen area to access.*/
            LCD_SetRect_For_Cmd( x, y, width, height );
            LCD_SendLCDCmd_RAM_Access();

            for ( i = 0; i < j ; i++ )
 27a:	45a0      	cmp	r8, r4
 27c:	dbea      	blt.n	254 <DRAW_SetImageSel+0x254>
C:\Downloaded Files\Virtual-Com-2\Virtual-Com-2\Project\Virtual_COM_Port\RIDE\CircleOS\src/draw.c:829
            }
            /* End of select screen area to access.*/
            LCD_SendLCDCmd_RAM_Access_End();
        }
    }
}
 27e:	b007      	add	sp, #28
 280:	e8bd 4ff0 	ldmia.w	sp!, {r4, r5, r6, r7, r8, r9, sl, fp, lr}
C:\Downloaded Files\Virtual-Com-2\Virtual-Com-2\Project\Virtual_COM_Port\RIDE\CircleOS\src/draw.c:826
                    LCD_SendLCDData( newBgndColor & 0xff );
                    LCD_SendLCDData(( newBgndColor >> 8 ) & 0xff );
                }
            }
            /* End of select screen area to access.*/
            LCD_SendLCDCmd_RAM_Access_End();
 284:	f7ff bffe 	b.w	0 <LCD_SendLCDCmd_RAM_Access_End>
C:\Downloaded Files\Virtual-Com-2\Virtual-Com-2\Project\Virtual_COM_Port\RIDE\CircleOS\src/draw.c:829
        }
    }
}
 288:	b007      	add	sp, #28
 28a:	e8bd 8ff0 	ldmia.w	sp!, {r4, r5, r6, r7, r8, r9, sl, fp, pc}

Disassembly of section .text.DRAW_SetImage:

00000000 <DRAW_SetImage>:
DRAW_SetImage():
C:\Downloaded Files\Virtual-Com-2\Virtual-Com-2\Project\Virtual_COM_Port\RIDE\CircleOS\src/draw.c:644
*  @warning       The (0x0) point in on the low left corner.
*
**/
/******************************************************************************/
void DRAW_SetImage( const color_t* imageptr, coord_t x, coord_t y, coord_t width, coord_t height )
{
   0:	b51f      	push	{r0, r1, r2, r3, r4, lr}
   2:	f9bd 4018 	ldrsh.w	r4, [sp, #24]
C:\Downloaded Files\Virtual-Com-2\Virtual-Com-2\Project\Virtual_COM_Port\RIDE\CircleOS\src/draw.c:645
    DRAW_SetImageSel( imageptr, x, y, width, height, 0xFFFF, 0xFFFF );
   6:	9400      	str	r4, [sp, #0]
   8:	f64f 74ff 	movw	r4, #65535	; 0xffff
   c:	9401      	str	r4, [sp, #4]
   e:	9402      	str	r4, [sp, #8]
  10:	f7ff fffe 	bl	0 <DRAW_SetImage>
C:\Downloaded Files\Virtual-Com-2\Virtual-Com-2\Project\Virtual_COM_Port\RIDE\CircleOS\src/draw.c:646
}
  14:	bd1f      	pop	{r0, r1, r2, r3, r4, pc}

Disassembly of section .text.DRAW_SetImageBW:

00000000 <DRAW_SetImageBW>:
DRAW_SetImageBW():
C:\Downloaded Files\Virtual-Com-2\Virtual-Com-2\Project\Virtual_COM_Port\RIDE\CircleOS\src/draw.c:854
*  @warning       The (0x0) point in on the low left corner.
*
**/
/******************************************************************************/
void DRAW_SetImageBW( const u8* imageptr, coord_t x, coord_t y, coord_t width, coord_t height )
{
   0:	e92d 41f0 	stmdb	sp!, {r4, r5, r6, r7, r8, lr}
   4:	461e      	mov	r6, r3
   6:	f9bd 3018 	ldrsh.w	r3, [sp, #24]
   a:	4604      	mov	r4, r0
C:\Downloaded Files\Virtual-Com-2\Virtual-Com-2\Project\Virtual_COM_Port\RIDE\CircleOS\src/draw.c:857
    coord_t i, j, k;

    k = ( width * height ) >> 3;
   c:	fb06 f503 	mul.w	r5, r6, r3
C:\Downloaded Files\Virtual-Com-2\Virtual-Com-2\Project\Virtual_COM_Port\RIDE\CircleOS\src/draw.c:860

    /* Select screen area to access.*/
    LCD_SetRect_For_Cmd( x, y, width, height );
  10:	4608      	mov	r0, r1
C:\Downloaded Files\Virtual-Com-2\Virtual-Com-2\Project\Virtual_COM_Port\RIDE\CircleOS\src/draw.c:857
/******************************************************************************/
void DRAW_SetImageBW( const u8* imageptr, coord_t x, coord_t y, coord_t width, coord_t height )
{
    coord_t i, j, k;

    k = ( width * height ) >> 3;
  12:	10ed      	asrs	r5, r5, #3
C:\Downloaded Files\Virtual-Com-2\Virtual-Com-2\Project\Virtual_COM_Port\RIDE\CircleOS\src/draw.c:860

    /* Select screen area to access.*/
    LCD_SetRect_For_Cmd( x, y, width, height );
  14:	4611      	mov	r1, r2
  16:	4632      	mov	r2, r6
  18:	f7ff fffe 	bl	0 <LCD_SetRect_For_Cmd>
C:\Downloaded Files\Virtual-Com-2\Virtual-Com-2\Project\Virtual_COM_Port\RIDE\CircleOS\src/draw.c:857
/******************************************************************************/
void DRAW_SetImageBW( const u8* imageptr, coord_t x, coord_t y, coord_t width, coord_t height )
{
    coord_t i, j, k;

    k = ( width * height ) >> 3;
  1c:	b2ad      	uxth	r5, r5
C:\Downloaded Files\Virtual-Com-2\Virtual-Com-2\Project\Virtual_COM_Port\RIDE\CircleOS\src/draw.c:863

    /* Select screen area to access.*/
    LCD_SetRect_For_Cmd( x, y, width, height );

    /* Send command to write data on the LCD screen.*/
    LCD_SendLCDCmd_RAM_Access();
  1e:	f7ff fffe 	bl	0 <LCD_SendLCDCmd_RAM_Access>
C:\Downloaded Files\Virtual-Com-2\Virtual-Com-2\Project\Virtual_COM_Port\RIDE\CircleOS\src/draw.c:866

    /* Loop on all bitmap bytes.*/
    for ( i = 0; i < k; i++ )
  22:	2600      	movs	r6, #0
  24:	e017      	b.n	56 <DRAW_SetImageBW+0x56>
  26:	2707      	movs	r7, #7
C:\Downloaded Files\Virtual-Com-2\Virtual-Com-2\Project\Virtual_COM_Port\RIDE\CircleOS\src/draw.c:872
    {
        /* Loop on all byte bits.*/
        for ( j = 0; j < 8; j++ )
        {
            /* Bit set: draw pixel with text color.*/
            if ( imageptr && ((( imageptr[i] ) >> ( 7 - j ) ) & 1 ) )
  28:	b13c      	cbz	r4, 3a <DRAW_SetImageBW+0x3a>
  2a:	5da3      	ldrb	r3, [r4, r6]
  2c:	413b      	asrs	r3, r7
  2e:	f013 0f01 	tst.w	r3, #1
  32:	d002      	beq.n	3a <DRAW_SetImageBW+0x3a>
C:\Downloaded Files\Virtual-Com-2\Virtual-Com-2\Project\Virtual_COM_Port\RIDE\CircleOS\src/draw.c:874
            {
                LCD_SendLCDData( TextColor & 0xff );
  34:	f8df 8030 	ldr.w	r8, [pc, #48]	; 68 <DRAW_SetImageBW+0x68>
  38:	e001      	b.n	3e <DRAW_SetImageBW+0x3e>
C:\Downloaded Files\Virtual-Com-2\Virtual-Com-2\Project\Virtual_COM_Port\RIDE\CircleOS\src/draw.c:880
                LCD_SendLCDData(( TextColor >> 8 ) & 0xff );
            }
            else
            {
                /* Bit not set: draw pixel with background color.*/
                LCD_SendLCDData( BGndColor & 0xff );
  3a:	f8df 8030 	ldr.w	r8, [pc, #48]	; 6c <DRAW_SetImageBW+0x6c>
  3e:	f898 0000 	ldrb.w	r0, [r8]
  42:	f7ff fffe 	bl	0 <LCD_SendLCDData>
C:\Downloaded Files\Virtual-Com-2\Virtual-Com-2\Project\Virtual_COM_Port\RIDE\CircleOS\src/draw.c:881
                LCD_SendLCDData(( BGndColor >> 8 ) & 0xff );
  46:	f8b8 0000 	ldrh.w	r0, [r8]
  4a:	0a00      	lsrs	r0, r0, #8
  4c:	f7ff fffe 	bl	0 <LCD_SendLCDData>
C:\Downloaded Files\Virtual-Com-2\Virtual-Com-2\Project\Virtual_COM_Port\RIDE\CircleOS\src/draw.c:869

    /* Loop on all bitmap bytes.*/
    for ( i = 0; i < k; i++ )
    {
        /* Loop on all byte bits.*/
        for ( j = 0; j < 8; j++ )
  50:	3f01      	subs	r7, #1
  52:	d2e9      	bcs.n	28 <DRAW_SetImageBW+0x28>
  54:	3601      	adds	r6, #1
C:\Downloaded Files\Virtual-Com-2\Virtual-Com-2\Project\Virtual_COM_Port\RIDE\CircleOS\src/draw.c:866

    /* Send command to write data on the LCD screen.*/
    LCD_SendLCDCmd_RAM_Access();

    /* Loop on all bitmap bytes.*/
    for ( i = 0; i < k; i++ )
  56:	b232      	sxth	r2, r6
  58:	b22b      	sxth	r3, r5
  5a:	429a      	cmp	r2, r3
  5c:	dbe3      	blt.n	26 <DRAW_SetImageBW+0x26>
C:\Downloaded Files\Virtual-Com-2\Virtual-Com-2\Project\Virtual_COM_Port\RIDE\CircleOS\src/draw.c:888
        }
    }

    /* End of select screen area to access.*/
    LCD_SendLCDCmd_RAM_Access_End();
}
  5e:	e8bd 41f0 	ldmia.w	sp!, {r4, r5, r6, r7, r8, lr}
C:\Downloaded Files\Virtual-Com-2\Virtual-Com-2\Project\Virtual_COM_Port\RIDE\CircleOS\src/draw.c:887
            }
        }
    }

    /* End of select screen area to access.*/
    LCD_SendLCDCmd_RAM_Access_End();
  62:	f7ff bffe 	b.w	0 <LCD_SendLCDCmd_RAM_Access_End>
  66:	bf00      	nop
	...

Disassembly of section .text.DRAW_DisplayStringWithMode:

00000000 <DRAW_DisplayStringWithMode>:
DRAW_DisplayStringWithMode():
C:\Downloaded Files\Virtual-Com-2\Virtual-Com-2\Project\Virtual_COM_Port\RIDE\CircleOS\src/draw.c:1006
*  @see           DRAW_DisplayStringInverted
*
**/
/******************************************************************************/
void DRAW_DisplayStringWithMode( coord_t x, coord_t y, const u8* ptr, len_t len, bool mode, enumset_t align )
{
   0:	e92d 4ff0 	stmdb	sp!, {r4, r5, r6, r7, r8, r9, sl, fp, lr}
   4:	b085      	sub	sp, #20
   6:	9102      	str	r1, [sp, #8]
   8:	f89d 1038 	ldrb.w	r1, [sp, #56]	; 0x38
   c:	461c      	mov	r4, r3
   e:	4607      	mov	r7, r0
  10:	4692      	mov	sl, r2
  12:	f8dd 903c 	ldr.w	r9, [sp, #60]	; 0x3c
  16:	9103      	str	r1, [sp, #12]
C:\Downloaded Files\Virtual-Com-2\Virtual-Com-2\Project\Virtual_COM_Port\RIDE\CircleOS\src/draw.c:1015
    len_t lgc;
    u8 CharWidth;
    u16 Display_Width;

    // Swap the max coordinates according to the orientation
    if( (LCD_GetScreenOrientation()%2) == 1 )
  18:	f7ff fffe 	bl	0 <LCD_GetScreenOrientation>
  1c:	f010 0f01 	tst.w	r0, #1
C:\Downloaded Files\Virtual-Com-2\Virtual-Com-2\Project\Virtual_COM_Port\RIDE\CircleOS\src/draw.c:1017
        {
        Display_Width = Screen_Height;
  20:	bf14      	ite	ne
  22:	4b38      	ldrne	r3, [pc, #224]	; (104 <DRAW_DisplayStringWithMode+0x104>)
C:\Downloaded Files\Virtual-Com-2\Virtual-Com-2\Project\Virtual_COM_Port\RIDE\CircleOS\src/draw.c:1021
        }
    else
        {
        Display_Width = Screen_Width;
  24:	4b38      	ldreq	r3, [pc, #224]	; (108 <DRAW_DisplayStringWithMode+0x108>)
  26:	f8b3 b000 	ldrh.w	fp, [r3]
C:\Downloaded Files\Virtual-Com-2\Virtual-Com-2\Project\Virtual_COM_Port\RIDE\CircleOS\src/draw.c:1025
        }
        
    // Check the length validity
    if ( len == 0 )
  2a:	b91c      	cbnz	r4, 34 <DRAW_DisplayStringWithMode+0x34>
C:\Downloaded Files\Virtual-Com-2\Virtual-Com-2\Project\Virtual_COM_Port\RIDE\CircleOS\src/draw.c:1026
        len = my_strlen( ptr );
  2c:	4650      	mov	r0, sl
  2e:	f7ff fffe 	bl	0 <my_strlen>
  32:	4604      	mov	r4, r0
C:\Downloaded Files\Virtual-Com-2\Virtual-Com-2\Project\Virtual_COM_Port\RIDE\CircleOS\src/draw.c:1027
    if ( len == ALL_SCREEN )
  34:	f1b4 3fff 	cmp.w	r4, #4294967295
  38:	4b34      	ldr	r3, [pc, #208]	; (10c <DRAW_DisplayStringWithMode+0x10c>)
  3a:	4e35      	ldr	r6, [pc, #212]	; (110 <DRAW_DisplayStringWithMode+0x110>)
  3c:	d104      	bne.n	48 <DRAW_DisplayStringWithMode+0x48>
C:\Downloaded Files\Virtual-Com-2\Virtual-Com-2\Project\Virtual_COM_Port\RIDE\CircleOS\src/draw.c:1028
        len = Display_Width / (Char_Width * CharMagniCoeff );
  3e:	781a      	ldrb	r2, [r3, #0]
  40:	6874      	ldr	r4, [r6, #4]
  42:	4354      	muls	r4, r2
  44:	fb9b f4f4 	sdiv	r4, fp, r4
C:\Downloaded Files\Virtual-Com-2\Virtual-Com-2\Project\Virtual_COM_Port\RIDE\CircleOS\src/draw.c:1031
    
    // Check and limit the length of the string to display
    CharWidth = Char_Width * CharMagniCoeff;
  48:	781d      	ldrb	r5, [r3, #0]
  4a:	6872      	ldr	r2, [r6, #4]
C:\Downloaded Files\Virtual-Com-2\Virtual-Com-2\Project\Virtual_COM_Port\RIDE\CircleOS\src/draw.c:1032
    lx = x + ( len * CharWidth );
  4c:	fa1f f887 	uxth.w	r8, r7
C:\Downloaded Files\Virtual-Com-2\Virtual-Com-2\Project\Virtual_COM_Port\RIDE\CircleOS\src/draw.c:1031
        len = my_strlen( ptr );
    if ( len == ALL_SCREEN )
        len = Display_Width / (Char_Width * CharMagniCoeff );
    
    // Check and limit the length of the string to display
    CharWidth = Char_Width * CharMagniCoeff;
  50:	4355      	muls	r5, r2
  52:	b2ed      	uxtb	r5, r5
C:\Downloaded Files\Virtual-Com-2\Virtual-Com-2\Project\Virtual_COM_Port\RIDE\CircleOS\src/draw.c:1032
    lx = x + ( len * CharWidth );
  54:	fb04 8305 	mla	r3, r4, r5, r8
C:\Downloaded Files\Virtual-Com-2\Virtual-Com-2\Project\Virtual_COM_Port\RIDE\CircleOS\src/draw.c:1033
    if ( lx > Display_Width )
  58:	b21b      	sxth	r3, r3
  5a:	455b      	cmp	r3, fp
  5c:	dd0e      	ble.n	7c <DRAW_DisplayStringWithMode+0x7c>
C:\Downloaded Files\Virtual-Com-2\Virtual-Com-2\Project\Virtual_COM_Port\RIDE\CircleOS\src/draw.c:1035
    {
        if ((( lx - Display_Width ) % CharWidth ) == 0 )
  5e:	ebcb 0003 	rsb	r0, fp, r3
  62:	fb90 f1f5 	sdiv	r1, r0, r5
  66:	fb05 0011 	mls	r0, r5, r1, r0
  6a:	b928      	cbnz	r0, 78 <DRAW_DisplayStringWithMode+0x78>
C:\Downloaded Files\Virtual-Com-2\Virtual-Com-2\Project\Virtual_COM_Port\RIDE\CircleOS\src/draw.c:1036
            len -= (( lx - Display_Width ) / CharWidth );
  6c:	ebc3 030b 	rsb	r3, r3, fp
  70:	fb93 f3f5 	sdiv	r3, r3, r5
  74:	18e4      	adds	r4, r4, r3
  76:	e001      	b.n	7c <DRAW_DisplayStringWithMode+0x7c>
C:\Downloaded Files\Virtual-Com-2\Virtual-Com-2\Project\Virtual_COM_Port\RIDE\CircleOS\src/draw.c:1038
        else
            len -= ((( lx - Display_Width ) / CharWidth ) + 1 );
  78:	43c9      	mvns	r1, r1
  7a:	1864      	adds	r4, r4, r1
C:\Downloaded Files\Virtual-Com-2\Virtual-Com-2\Project\Virtual_COM_Port\RIDE\CircleOS\src/draw.c:1042
    }

    // Clear the area
    if ( (Transparency == 0) || (CharMagniCoeff>3) )
  7c:	4b25      	ldr	r3, [pc, #148]	; (114 <DRAW_DisplayStringWithMode+0x114>)
  7e:	781b      	ldrb	r3, [r3, #0]
  80:	b10b      	cbz	r3, 86 <DRAW_DisplayStringWithMode+0x86>
  82:	2a03      	cmp	r2, #3
  84:	dd05      	ble.n	92 <DRAW_DisplayStringWithMode+0x92>
C:\Downloaded Files\Virtual-Com-2\Virtual-Com-2\Project\Virtual_COM_Port\RIDE\CircleOS\src/draw.c:1043
        DRAW_Clear_Text( x, y, len, mode );
  86:	4638      	mov	r0, r7
  88:	9902      	ldr	r1, [sp, #8]
  8a:	4622      	mov	r2, r4
  8c:	9b03      	ldr	r3, [sp, #12]
  8e:	f7ff fffe 	bl	0 <DRAW_DisplayStringWithMode>
C:\Downloaded Files\Virtual-Com-2\Virtual-Com-2\Project\Virtual_COM_Port\RIDE\CircleOS\src/draw.c:1047

    // Locate the string into the area
    ref_x = x;
    lgc = my_strlen( ptr );
  92:	4650      	mov	r0, sl
  94:	f7ff fffe 	bl	0 <my_strlen>
  98:	42a0      	cmp	r0, r4
  9a:	bfb4      	ite	lt
  9c:	4683      	movlt	fp, r0
  9e:	46a3      	movge	fp, r4
C:\Downloaded Files\Virtual-Com-2\Virtual-Com-2\Project\Virtual_COM_Port\RIDE\CircleOS\src/draw.c:1051
    if ( lgc > len )
        lgc = len;

    switch ( align )
  a0:	f1b9 0f01 	cmp.w	r9, #1
  a4:	d003      	beq.n	ae <DRAW_DisplayStringWithMode+0xae>
  a6:	f1b9 0f02 	cmp.w	r9, #2
  aa:	d108      	bne.n	be <DRAW_DisplayStringWithMode+0xbe>
  ac:	e00a      	b.n	c4 <DRAW_DisplayStringWithMode+0xc4>
C:\Downloaded Files\Virtual-Com-2\Virtual-Com-2\Project\Virtual_COM_Port\RIDE\CircleOS\src/draw.c:1054
    {
    case CENTER:
        ref_x += (( len - lgc ) * CharWidth ) / 2;
  ae:	ebcb 0404 	rsb	r4, fp, r4
  b2:	436c      	muls	r4, r5
  b4:	eb04 74d4 	add.w	r4, r4, r4, lsr #31
  b8:	eb08 0764 	add.w	r7, r8, r4, asr #1
  bc:	b2bf      	uxth	r7, r7
C:\Downloaded Files\Virtual-Com-2\Virtual-Com-2\Project\Virtual_COM_Port\RIDE\CircleOS\src/draw.c:1046
    // Clear the area
    if ( (Transparency == 0) || (CharMagniCoeff>3) )
        DRAW_Clear_Text( x, y, len, mode );

    // Locate the string into the area
    ref_x = x;
  be:	f04f 0900 	mov.w	r9, #0
  c2:	e019      	b.n	f8 <DRAW_DisplayStringWithMode+0xf8>
C:\Downloaded Files\Virtual-Com-2\Virtual-Com-2\Project\Virtual_COM_Port\RIDE\CircleOS\src/draw.c:1057
    {
    case CENTER:
        ref_x += (( len - lgc ) * CharWidth ) / 2;
        break;
    case RIGHT:
        ref_x += ( len - lgc ) * CharWidth;
  c4:	ebcb 0404 	rsb	r4, fp, r4
  c8:	fb05 8704 	mla	r7, r5, r4, r8
  cc:	e7f6      	b.n	bc <DRAW_DisplayStringWithMode+0xbc>
C:\Downloaded Files\Virtual-Com-2\Virtual-Com-2\Project\Virtual_COM_Port\RIDE\CircleOS\src/draw.c:1068

    /* Display each character on LCD */
    for ( i = 0 ; i < lgc; i++ )
    {
        /* Display one character on LCD */
        LCD_DisplayChar( ref_x, y, *ptr++, mode ? BGndColor : TextColor,  mode ? TextColor : BGndColor, CharMagniCoeff );
  ce:	9b03      	ldr	r3, [sp, #12]
  d0:	f81a 2009 	ldrb.w	r2, [sl, r9]
  d4:	4910      	ldr	r1, [pc, #64]	; (118 <DRAW_DisplayStringWithMode+0x118>)
  d6:	b113      	cbz	r3, de <DRAW_DisplayStringWithMode+0xde>
  d8:	8833      	ldrh	r3, [r6, #0]
  da:	8809      	ldrh	r1, [r1, #0]
  dc:	e001      	b.n	e2 <DRAW_DisplayStringWithMode+0xe2>
  de:	880b      	ldrh	r3, [r1, #0]
  e0:	8831      	ldrh	r1, [r6, #0]
  e2:	9100      	str	r1, [sp, #0]
  e4:	6871      	ldr	r1, [r6, #4]
  e6:	b238      	sxth	r0, r7
  e8:	9101      	str	r1, [sp, #4]
  ea:	9902      	ldr	r1, [sp, #8]
  ec:	f7ff fffe 	bl	0 <LCD_DisplayChar>
C:\Downloaded Files\Virtual-Com-2\Virtual-Com-2\Project\Virtual_COM_Port\RIDE\CircleOS\src/draw.c:1005
*  @see           DRAW_DisplayString
*  @see           DRAW_DisplayStringInverted
*
**/
/******************************************************************************/
void DRAW_DisplayStringWithMode( coord_t x, coord_t y, const u8* ptr, len_t len, bool mode, enumset_t align )
  f0:	19ef      	adds	r7, r5, r7
  f2:	b2bf      	uxth	r7, r7
C:\Downloaded Files\Virtual-Com-2\Virtual-Com-2\Project\Virtual_COM_Port\RIDE\CircleOS\src/draw.c:1065
    default:
        break;
    }

    /* Display each character on LCD */
    for ( i = 0 ; i < lgc; i++ )
  f4:	f109 0901 	add.w	r9, r9, #1
  f8:	45d9      	cmp	r9, fp
  fa:	dbe8      	blt.n	ce <DRAW_DisplayStringWithMode+0xce>
C:\Downloaded Files\Virtual-Com-2\Virtual-Com-2\Project\Virtual_COM_Port\RIDE\CircleOS\src/draw.c:1073
        LCD_DisplayChar( ref_x, y, *ptr++, mode ? BGndColor : TextColor,  mode ? TextColor : BGndColor, CharMagniCoeff );

        /* Increment the column position by CharWidth pixels */
        ref_x += CharWidth;
    }
}
  fc:	b005      	add	sp, #20
  fe:	e8bd 8ff0 	ldmia.w	sp!, {r4, r5, r6, r7, r8, r9, sl, fp, pc}
 102:	bf00      	nop
	...

Disassembly of section .text.DRAW_DisplayString:

00000000 <DRAW_DisplayString>:
DRAW_DisplayString():
C:\Downloaded Files\Virtual-Com-2\Virtual-Com-2\Project\Virtual_COM_Port\RIDE\CircleOS\src/draw.c:1097
*  @warning       The input string must be null-terminated.
*
**/
/******************************************************************************/
void DRAW_DisplayString( coord_t x, coord_t y, const u8* ptr, len_t len )
{
   0:	b513      	push	{r0, r1, r4, lr}
C:\Downloaded Files\Virtual-Com-2\Virtual-Com-2\Project\Virtual_COM_Port\RIDE\CircleOS\src/draw.c:1098
    DRAW_DisplayStringWithMode( x, y, ptr, len, NORMAL_TEXT, LEFT );
   2:	2400      	movs	r4, #0
   4:	9400      	str	r4, [sp, #0]
   6:	9401      	str	r4, [sp, #4]
   8:	f7ff fffe 	bl	0 <DRAW_DisplayString>
C:\Downloaded Files\Virtual-Com-2\Virtual-Com-2\Project\Virtual_COM_Port\RIDE\CircleOS\src/draw.c:1099
}
   c:	bd1c      	pop	{r2, r3, r4, pc}

Disassembly of section .text.DRAW_DisplayTime:

00000000 <DRAW_DisplayTime>:
DRAW_DisplayTime():
C:\Downloaded Files\Virtual-Com-2\Virtual-Com-2\Project\Virtual_COM_Port\RIDE\CircleOS\src/draw.c:941
*  @warning       The (0x0) point in on the low left corner.
*
**/
/******************************************************************************/
void DRAW_DisplayTime( coord_t x, coord_t y )
{
   0:	b5f7      	push	{r0, r1, r2, r4, r5, r6, r7, lr}
C:\Downloaded Files\Virtual-Com-2\Virtual-Com-2\Project\Virtual_COM_Port\RIDE\CircleOS\src/draw.c:955

    /* Get Time*/
    RTC_GetTime( &THH, &TMM, &TSS );

    /* Update time display if seconds have changed */
    if ( THH != OldTHH )
   2:	4c21      	ldr	r4, [pc, #132]	; (88 <DRAW_DisplayTime+0x88>)
C:\Downloaded Files\Virtual-Com-2\Virtual-Com-2\Project\Virtual_COM_Port\RIDE\CircleOS\src/draw.c:941
*  @warning       The (0x0) point in on the low left corner.
*
**/
/******************************************************************************/
void DRAW_DisplayTime( coord_t x, coord_t y )
{
   4:	4606      	mov	r6, r0
   6:	460d      	mov	r5, r1
C:\Downloaded Files\Virtual-Com-2\Virtual-Com-2\Project\Virtual_COM_Port\RIDE\CircleOS\src/draw.c:952
    static u8 OldTSS = 100;

    static u8 TimeTextBuffer[9];       // Trailing '\0' is NOT included

    /* Get Time*/
    RTC_GetTime( &THH, &TMM, &TSS );
   8:	f10d 0007 	add.w	r0, sp, #7
   c:	f10d 0106 	add.w	r1, sp, #6
  10:	f10d 0205 	add.w	r2, sp, #5
  14:	f7ff fffe 	bl	0 <RTC_GetTime>
C:\Downloaded Files\Virtual-Com-2\Virtual-Com-2\Project\Virtual_COM_Port\RIDE\CircleOS\src/draw.c:955

    /* Update time display if seconds have changed */
    if ( THH != OldTHH )
  18:	f89d 1007 	ldrb.w	r1, [sp, #7]
  1c:	7a23      	ldrb	r3, [r4, #8]
  1e:	428b      	cmp	r3, r1
  20:	d009      	beq.n	36 <DRAW_DisplayTime+0x36>
C:\Downloaded Files\Virtual-Com-2\Virtual-Com-2\Project\Virtual_COM_Port\RIDE\CircleOS\src/draw.c:958
    {
        OldTHH = THH;
        UTIL_uint2str( &TimeTextBuffer[0], OldTHH, 2, 1 );
  22:	4f1a      	ldr	r7, [pc, #104]	; (8c <DRAW_DisplayTime+0x8c>)
  24:	2301      	movs	r3, #1
C:\Downloaded Files\Virtual-Com-2\Virtual-Com-2\Project\Virtual_COM_Port\RIDE\CircleOS\src/draw.c:957
    RTC_GetTime( &THH, &TMM, &TSS );

    /* Update time display if seconds have changed */
    if ( THH != OldTHH )
    {
        OldTHH = THH;
  26:	7221      	strb	r1, [r4, #8]
C:\Downloaded Files\Virtual-Com-2\Virtual-Com-2\Project\Virtual_COM_Port\RIDE\CircleOS\src/draw.c:958
        UTIL_uint2str( &TimeTextBuffer[0], OldTHH, 2, 1 );
  28:	f107 0008 	add.w	r0, r7, #8
  2c:	2202      	movs	r2, #2
  2e:	f7ff fffe 	bl	0 <UTIL_uint2str>
C:\Downloaded Files\Virtual-Com-2\Virtual-Com-2\Project\Virtual_COM_Port\RIDE\CircleOS\src/draw.c:959
        TimeTextBuffer[2] = ':';
  32:	233a      	movs	r3, #58	; 0x3a
  34:	72bb      	strb	r3, [r7, #10]
C:\Downloaded Files\Virtual-Com-2\Virtual-Com-2\Project\Virtual_COM_Port\RIDE\CircleOS\src/draw.c:961
    }
    if ( TMM != OldTMM )
  36:	f89d 1006 	ldrb.w	r1, [sp, #6]
  3a:	7a63      	ldrb	r3, [r4, #9]
  3c:	428b      	cmp	r3, r1
  3e:	d00a      	beq.n	56 <DRAW_DisplayTime+0x56>
C:\Downloaded Files\Virtual-Com-2\Virtual-Com-2\Project\Virtual_COM_Port\RIDE\CircleOS\src/draw.c:963
    {
        OldTMM = TMM;
  40:	4b11      	ldr	r3, [pc, #68]	; (88 <DRAW_DisplayTime+0x88>)
C:\Downloaded Files\Virtual-Com-2\Virtual-Com-2\Project\Virtual_COM_Port\RIDE\CircleOS\src/draw.c:964
        UTIL_uint2str( &TimeTextBuffer[3], OldTMM, 2, 1 );
  42:	4f12      	ldr	r7, [pc, #72]	; (8c <DRAW_DisplayTime+0x8c>)
C:\Downloaded Files\Virtual-Com-2\Virtual-Com-2\Project\Virtual_COM_Port\RIDE\CircleOS\src/draw.c:963
        UTIL_uint2str( &TimeTextBuffer[0], OldTHH, 2, 1 );
        TimeTextBuffer[2] = ':';
    }
    if ( TMM != OldTMM )
    {
        OldTMM = TMM;
  44:	7259      	strb	r1, [r3, #9]
C:\Downloaded Files\Virtual-Com-2\Virtual-Com-2\Project\Virtual_COM_Port\RIDE\CircleOS\src/draw.c:964
        UTIL_uint2str( &TimeTextBuffer[3], OldTMM, 2, 1 );
  46:	f107 000b 	add.w	r0, r7, #11
  4a:	2301      	movs	r3, #1
  4c:	2202      	movs	r2, #2
  4e:	f7ff fffe 	bl	0 <UTIL_uint2str>
C:\Downloaded Files\Virtual-Com-2\Virtual-Com-2\Project\Virtual_COM_Port\RIDE\CircleOS\src/draw.c:965
        TimeTextBuffer[5] = ':';
  52:	233a      	movs	r3, #58	; 0x3a
  54:	737b      	strb	r3, [r7, #13]
C:\Downloaded Files\Virtual-Com-2\Virtual-Com-2\Project\Virtual_COM_Port\RIDE\CircleOS\src/draw.c:967
    }
    if ( TSS != OldTSS )
  56:	f89d 1005 	ldrb.w	r1, [sp, #5]
  5a:	7aa3      	ldrb	r3, [r4, #10]
  5c:	428b      	cmp	r3, r1
  5e:	d011      	beq.n	84 <DRAW_DisplayTime+0x84>
C:\Downloaded Files\Virtual-Com-2\Virtual-Com-2\Project\Virtual_COM_Port\RIDE\CircleOS\src/draw.c:970
    {
        OldTSS = TSS;
        UTIL_uint2str( &TimeTextBuffer[6], OldTSS, 2, 1 );
  60:	4c0a      	ldr	r4, [pc, #40]	; (8c <DRAW_DisplayTime+0x8c>)
C:\Downloaded Files\Virtual-Com-2\Virtual-Com-2\Project\Virtual_COM_Port\RIDE\CircleOS\src/draw.c:969
        UTIL_uint2str( &TimeTextBuffer[3], OldTMM, 2, 1 );
        TimeTextBuffer[5] = ':';
    }
    if ( TSS != OldTSS )
    {
        OldTSS = TSS;
  62:	4b09      	ldr	r3, [pc, #36]	; (88 <DRAW_DisplayTime+0x88>)
C:\Downloaded Files\Virtual-Com-2\Virtual-Com-2\Project\Virtual_COM_Port\RIDE\CircleOS\src/draw.c:970
        UTIL_uint2str( &TimeTextBuffer[6], OldTSS, 2, 1 );
  64:	f104 000e 	add.w	r0, r4, #14
C:\Downloaded Files\Virtual-Com-2\Virtual-Com-2\Project\Virtual_COM_Port\RIDE\CircleOS\src/draw.c:969
        UTIL_uint2str( &TimeTextBuffer[3], OldTMM, 2, 1 );
        TimeTextBuffer[5] = ':';
    }
    if ( TSS != OldTSS )
    {
        OldTSS = TSS;
  68:	7299      	strb	r1, [r3, #10]
C:\Downloaded Files\Virtual-Com-2\Virtual-Com-2\Project\Virtual_COM_Port\RIDE\CircleOS\src/draw.c:970
        UTIL_uint2str( &TimeTextBuffer[6], OldTSS, 2, 1 );
  6a:	2202      	movs	r2, #2
  6c:	2301      	movs	r3, #1
  6e:	f7ff fffe 	bl	0 <UTIL_uint2str>
C:\Downloaded Files\Virtual-Com-2\Virtual-Com-2\Project\Virtual_COM_Port\RIDE\CircleOS\src/draw.c:971
        TimeTextBuffer[8] = '\0';
  72:	2300      	movs	r3, #0
  74:	7423      	strb	r3, [r4, #16]
C:\Downloaded Files\Virtual-Com-2\Virtual-Com-2\Project\Virtual_COM_Port\RIDE\CircleOS\src/draw.c:972
        DRAW_DisplayString( x , y, TimeTextBuffer, 8 );
  76:	4630      	mov	r0, r6
  78:	4629      	mov	r1, r5
  7a:	f104 0208 	add.w	r2, r4, #8
  7e:	3308      	adds	r3, #8
  80:	f7ff fffe 	bl	0 <DRAW_DisplayTime>
C:\Downloaded Files\Virtual-Com-2\Virtual-Com-2\Project\Virtual_COM_Port\RIDE\CircleOS\src/draw.c:974
    }
}
  84:	bdfe      	pop	{r1, r2, r3, r4, r5, r6, r7, pc}
  86:	bf00      	nop
	...

Disassembly of section .text.DRAW_DisplayVbat:

00000000 <DRAW_DisplayVbat>:
DRAW_DisplayVbat():
C:\Downloaded Files\Virtual-Com-2\Virtual-Com-2\Project\Virtual_COM_Port\RIDE\CircleOS\src/draw.c:907
*  @warning       The (0x0) point in on the low left corner.
*
**/
/******************************************************************************/
void DRAW_DisplayVbat( coord_t x, coord_t y )
{
   0:	b530      	push	{r4, r5, lr}
   2:	b087      	sub	sp, #28
   4:	460c      	mov	r4, r1
   6:	4605      	mov	r5, r0
C:\Downloaded Files\Virtual-Com-2\Virtual-Com-2\Project\Virtual_COM_Port\RIDE\CircleOS\src/draw.c:910
    u8 text[17];
    u8* p = text;
    u16 vbat = UTIL_GetBat();
   8:	f7ff fffe 	bl	0 <UTIL_GetBat>
C:\Downloaded Files\Virtual-Com-2\Virtual-Com-2\Project\Virtual_COM_Port\RIDE\CircleOS\src/draw.c:912

    *p++ = 'B';
   c:	2342      	movs	r3, #66	; 0x42
   e:	f88d 3004 	strb.w	r3, [sp, #4]
C:\Downloaded Files\Virtual-Com-2\Virtual-Com-2\Project\Virtual_COM_Port\RIDE\CircleOS\src/draw.c:913
    *p++ = 'A';
  12:	3b01      	subs	r3, #1
  14:	f88d 3005 	strb.w	r3, [sp, #5]
C:\Downloaded Files\Virtual-Com-2\Virtual-Com-2\Project\Virtual_COM_Port\RIDE\CircleOS\src/draw.c:914
    *p++ = 'T';
  18:	3313      	adds	r3, #19
C:\Downloaded Files\Virtual-Com-2\Virtual-Com-2\Project\Virtual_COM_Port\RIDE\CircleOS\src/draw.c:910
/******************************************************************************/
void DRAW_DisplayVbat( coord_t x, coord_t y )
{
    u8 text[17];
    u8* p = text;
    u16 vbat = UTIL_GetBat();
  1a:	4601      	mov	r1, r0
C:\Downloaded Files\Virtual-Com-2\Virtual-Com-2\Project\Virtual_COM_Port\RIDE\CircleOS\src/draw.c:914

    *p++ = 'B';
    *p++ = 'A';
    *p++ = 'T';
  1c:	f88d 3006 	strb.w	r3, [sp, #6]
C:\Downloaded Files\Virtual-Com-2\Virtual-Com-2\Project\Virtual_COM_Port\RIDE\CircleOS\src/draw.c:918
    *p++ = '=';

    /* Translate vbat into p.*/
    vbattoa( p, vbat );
  20:	a802      	add	r0, sp, #8
C:\Downloaded Files\Virtual-Com-2\Virtual-Com-2\Project\Virtual_COM_Port\RIDE\CircleOS\src/draw.c:915
    u16 vbat = UTIL_GetBat();

    *p++ = 'B';
    *p++ = 'A';
    *p++ = 'T';
    *p++ = '=';
  22:	3b17      	subs	r3, #23
  24:	f88d 3007 	strb.w	r3, [sp, #7]
C:\Downloaded Files\Virtual-Com-2\Virtual-Com-2\Project\Virtual_COM_Port\RIDE\CircleOS\src/draw.c:918

    /* Translate vbat into p.*/
    vbattoa( p, vbat );
  28:	f7ff fffe 	bl	0 <vbattoa>
C:\Downloaded Files\Virtual-Com-2\Virtual-Com-2\Project\Virtual_COM_Port\RIDE\CircleOS\src/draw.c:921

    /* Display text at the provided coordinates.*/
    DRAW_DisplayString( x, y, ( u8* )text, 10 );
  2c:	4628      	mov	r0, r5
  2e:	4621      	mov	r1, r4
  30:	aa01      	add	r2, sp, #4
  32:	230a      	movs	r3, #10
  34:	f7ff fffe 	bl	0 <DRAW_DisplayVbat>
C:\Downloaded Files\Virtual-Com-2\Virtual-Com-2\Project\Virtual_COM_Port\RIDE\CircleOS\src/draw.c:922
}
  38:	b007      	add	sp, #28
  3a:	bd30      	pop	{r4, r5, pc}

Disassembly of section .text.DRAW_DisplayTemp:

00000000 <DRAW_DisplayTemp>:
DRAW_DisplayTemp():
C:\Downloaded Files\Virtual-Com-2\Virtual-Com-2\Project\Virtual_COM_Port\RIDE\CircleOS\src/draw.c:382
*                 call or if DRAW_Clear() has been called in between.
*
**/
/******************************************************************************/
NODEBUG2 void DRAW_DisplayTemp( coord_t x, coord_t y )
    {
   0:	b573      	push	{r0, r1, r4, r5, r6, lr}
C:\Downloaded Files\Virtual-Com-2\Virtual-Com-2\Project\Virtual_COM_Port\RIDE\CircleOS\src/draw.c:389
    u8 c;
    u16 r = 0;
    u8 TempTextBuffer[5];
    bool firstTime = 0;

    if (OldTemp == -1)
   2:	4d26      	ldr	r5, [pc, #152]	; (9c <DRAW_DisplayTemp+0x9c>)
C:\Downloaded Files\Virtual-Com-2\Virtual-Com-2\Project\Virtual_COM_Port\RIDE\CircleOS\src/draw.c:382
*                 call or if DRAW_Clear() has been called in between.
*
**/
/******************************************************************************/
NODEBUG2 void DRAW_DisplayTemp( coord_t x, coord_t y )
    {
   4:	4604      	mov	r4, r0
C:\Downloaded Files\Virtual-Com-2\Virtual-Com-2\Project\Virtual_COM_Port\RIDE\CircleOS\src/draw.c:389
    u8 c;
    u16 r = 0;
    u8 TempTextBuffer[5];
    bool firstTime = 0;

    if (OldTemp == -1)
   6:	f9b5 300c 	ldrsh.w	r3, [r5, #12]
C:\Downloaded Files\Virtual-Com-2\Virtual-Com-2\Project\Virtual_COM_Port\RIDE\CircleOS\src/draw.c:382
*                 call or if DRAW_Clear() has been called in between.
*
**/
/******************************************************************************/
NODEBUG2 void DRAW_DisplayTemp( coord_t x, coord_t y )
    {
   a:	460e      	mov	r6, r1
C:\Downloaded Files\Virtual-Com-2\Virtual-Com-2\Project\Virtual_COM_Port\RIDE\CircleOS\src/draw.c:389
    u8 c;
    u16 r = 0;
    u8 TempTextBuffer[5];
    bool firstTime = 0;

    if (OldTemp == -1)
   c:	f1b3 3fff 	cmp.w	r3, #4294967295
  10:	d105      	bne.n	e <UTIL_GetTemp+0xe>
C:\Downloaded Files\Virtual-Com-2\Virtual-Com-2\Project\Virtual_COM_Port\RIDE\CircleOS\src/draw.c:392
        {
        /* Get the intial value */
        Temp = OldTemp = UTIL_GetTemp();
  12:	f7ff fffe 	bl	0 <UTIL_GetTemp>
  16:	b280      	uxth	r0, r0
  18:	81a8      	strh	r0, [r5, #12]
C:\Downloaded Files\Virtual-Com-2\Virtual-Com-2\Project\Virtual_COM_Port\RIDE\CircleOS\src/draw.c:393
        firstTime = 1;
  1a:	2201      	movs	r2, #1
  1c:	e00c      	b.n	38 <DRAW_DisplayTemp+0x38>
C:\Downloaded Files\Virtual-Com-2\Virtual-Com-2\Project\Virtual_COM_Port\RIDE\CircleOS\src/draw.c:398
        }
    else
        {
        /* Get Time and filter it with the previous value*/
        Temp = ( UTIL_GetTemp() + OldTemp * 7 ) / 8;
  1e:	f7ff fffe 	bl	0 <UTIL_GetTemp>
  22:	f9b5 300c 	ldrsh.w	r3, [r5, #12]
  26:	eb00 00c3 	add.w	r0, r0, r3, lsl #3
  2a:	1ac3      	subs	r3, r0, r3
  2c:	bf48      	it	mi
  2e:	3307      	addmi	r3, #7
  30:	10db      	asrs	r3, r3, #3
  32:	b298      	uxth	r0, r3
C:\Downloaded Files\Virtual-Com-2\Virtual-Com-2\Project\Virtual_COM_Port\RIDE\CircleOS\src/draw.c:399
        OldTemp = Temp;
  34:	81a8      	strh	r0, [r5, #12]
C:\Downloaded Files\Virtual-Com-2\Virtual-Com-2\Project\Virtual_COM_Port\RIDE\CircleOS\src/draw.c:387
    {
    s16 Temp;
    u8 c;
    u16 r = 0;
    u8 TempTextBuffer[5];
    bool firstTime = 0;
  36:	2200      	movs	r2, #0
C:\Downloaded Files\Virtual-Com-2\Virtual-Com-2\Project\Virtual_COM_Port\RIDE\CircleOS\src/draw.c:403
        Temp = ( UTIL_GetTemp() + OldTemp * 7 ) / 8;
        OldTemp = Temp;
        }

    // Display value if changed or first call
    if ( (Temp != OldTemp ) || firstTime )
  38:	f9b5 100c 	ldrsh.w	r1, [r5, #12]
  3c:	b203      	sxth	r3, r0
  3e:	4299      	cmp	r1, r3
  40:	d100      	bne.n	44 <DRAW_DisplayTemp+0x44>
  42:	b352      	cbz	r2, 9a <DRAW_DisplayTemp+0x9a>
C:\Downloaded Files\Virtual-Com-2\Virtual-Com-2\Project\Virtual_COM_Port\RIDE\CircleOS\src/draw.c:407
        {
        // Display modified temperature
        /* 1 000 digit*/
        c = (( Temp - r ) / 100 );
  44:	2264      	movs	r2, #100	; 0x64
  46:	fb93 f1f2 	sdiv	r1, r3, r2
  4a:	b2c9      	uxtb	r1, r1
C:\Downloaded Files\Virtual-Com-2\Virtual-Com-2\Project\Virtual_COM_Port\RIDE\CircleOS\src/draw.c:408
        r = r + ( c * 100 );
  4c:	434a      	muls	r2, r1
C:\Downloaded Files\Virtual-Com-2\Virtual-Com-2\Project\Virtual_COM_Port\RIDE\CircleOS\src/draw.c:409
        TempTextBuffer[0] = c + 0x30;
  4e:	3130      	adds	r1, #48	; 0x30
C:\Downloaded Files\Virtual-Com-2\Virtual-Com-2\Project\Virtual_COM_Port\RIDE\CircleOS\src/draw.c:412

        /* 100 digit*/
        c = (( Temp - r ) / 10 );
  50:	1a9b      	subs	r3, r3, r2
C:\Downloaded Files\Virtual-Com-2\Virtual-Com-2\Project\Virtual_COM_Port\RIDE\CircleOS\src/draw.c:409
        {
        // Display modified temperature
        /* 1 000 digit*/
        c = (( Temp - r ) / 100 );
        r = r + ( c * 100 );
        TempTextBuffer[0] = c + 0x30;
  52:	f88d 1000 	strb.w	r1, [sp]
C:\Downloaded Files\Virtual-Com-2\Virtual-Com-2\Project\Virtual_COM_Port\RIDE\CircleOS\src/draw.c:412

        /* 100 digit*/
        c = (( Temp - r ) / 10 );
  56:	210a      	movs	r1, #10
  58:	fb93 f3f1 	sdiv	r3, r3, r1
  5c:	b2db      	uxtb	r3, r3
C:\Downloaded Files\Virtual-Com-2\Virtual-Com-2\Project\Virtual_COM_Port\RIDE\CircleOS\src/draw.c:413
        r = r + ( c * 10 );
  5e:	fb01 2203 	mla	r2, r1, r3, r2
C:\Downloaded Files\Virtual-Com-2\Virtual-Com-2\Project\Virtual_COM_Port\RIDE\CircleOS\src/draw.c:420

        /* Dot*/
        TempTextBuffer[2] = '.';

        /* 10 digit*/
        c = (( Temp - r ));
  62:	3030      	adds	r0, #48	; 0x30
C:\Downloaded Files\Virtual-Com-2\Virtual-Com-2\Project\Virtual_COM_Port\RIDE\CircleOS\src/draw.c:414
        TempTextBuffer[0] = c + 0x30;

        /* 100 digit*/
        c = (( Temp - r ) / 10 );
        r = r + ( c * 10 );
        TempTextBuffer[1] = c + 0x30;
  64:	f103 0530 	add.w	r5, r3, #48	; 0x30
C:\Downloaded Files\Virtual-Com-2\Virtual-Com-2\Project\Virtual_COM_Port\RIDE\CircleOS\src/draw.c:421
        /* Dot*/
        TempTextBuffer[2] = '.';

        /* 10 digit*/
        c = (( Temp - r ));
        TempTextBuffer[3] = c + 0x30;
  68:	1a83      	subs	r3, r0, r2
  6a:	f88d 3003 	strb.w	r3, [sp, #3]
C:\Downloaded Files\Virtual-Com-2\Virtual-Com-2\Project\Virtual_COM_Port\RIDE\CircleOS\src/draw.c:424

        /* Volt*/
        TempTextBuffer[4] = fTemperatureInFahrenheit ? 'F' : 'C';
  6e:	4b0c      	ldr	r3, [pc, #48]	; (a0 <DRAW_DisplayTemp+0xa0>)
C:\Downloaded Files\Virtual-Com-2\Virtual-Com-2\Project\Virtual_COM_Port\RIDE\CircleOS\src/draw.c:414
        TempTextBuffer[0] = c + 0x30;

        /* 100 digit*/
        c = (( Temp - r ) / 10 );
        r = r + ( c * 10 );
        TempTextBuffer[1] = c + 0x30;
  70:	f88d 5001 	strb.w	r5, [sp, #1]
C:\Downloaded Files\Virtual-Com-2\Virtual-Com-2\Project\Virtual_COM_Port\RIDE\CircleOS\src/draw.c:424
        /* 10 digit*/
        c = (( Temp - r ));
        TempTextBuffer[3] = c + 0x30;

        /* Volt*/
        TempTextBuffer[4] = fTemperatureInFahrenheit ? 'F' : 'C';
  74:	781b      	ldrb	r3, [r3, #0]
C:\Downloaded Files\Virtual-Com-2\Virtual-Com-2\Project\Virtual_COM_Port\RIDE\CircleOS\src/draw.c:417
        c = (( Temp - r ) / 10 );
        r = r + ( c * 10 );
        TempTextBuffer[1] = c + 0x30;

        /* Dot*/
        TempTextBuffer[2] = '.';
  76:	252e      	movs	r5, #46	; 0x2e
C:\Downloaded Files\Virtual-Com-2\Virtual-Com-2\Project\Virtual_COM_Port\RIDE\CircleOS\src/draw.c:424
        /* 10 digit*/
        c = (( Temp - r ));
        TempTextBuffer[3] = c + 0x30;

        /* Volt*/
        TempTextBuffer[4] = fTemperatureInFahrenheit ? 'F' : 'C';
  78:	2b00      	cmp	r3, #0
  7a:	bf0c      	ite	eq
  7c:	2343      	moveq	r3, #67	; 0x43
  7e:	2346      	movne	r3, #70	; 0x46
  80:	f88d 3004 	strb.w	r3, [sp, #4]
C:\Downloaded Files\Virtual-Com-2\Virtual-Com-2\Project\Virtual_COM_Port\RIDE\CircleOS\src/draw.c:425
        TempTextBuffer[5] = 0;    
  84:	2300      	movs	r3, #0
  86:	f88d 3005 	strb.w	r3, [sp, #5]
C:\Downloaded Files\Virtual-Com-2\Virtual-Com-2\Project\Virtual_COM_Port\RIDE\CircleOS\src/draw.c:427
        
        DRAW_DisplayString( x, y, TempTextBuffer, 5 );
  8a:	4620      	mov	r0, r4
  8c:	4631      	mov	r1, r6
  8e:	466a      	mov	r2, sp
  90:	3305      	adds	r3, #5
C:\Downloaded Files\Virtual-Com-2\Virtual-Com-2\Project\Virtual_COM_Port\RIDE\CircleOS\src/draw.c:417
        c = (( Temp - r ) / 10 );
        r = r + ( c * 10 );
        TempTextBuffer[1] = c + 0x30;

        /* Dot*/
        TempTextBuffer[2] = '.';
  92:	f88d 5002 	strb.w	r5, [sp, #2]
C:\Downloaded Files\Virtual-Com-2\Virtual-Com-2\Project\Virtual_COM_Port\RIDE\CircleOS\src/draw.c:427

        /* Volt*/
        TempTextBuffer[4] = fTemperatureInFahrenheit ? 'F' : 'C';
        TempTextBuffer[5] = 0;    
        
        DRAW_DisplayString( x, y, TempTextBuffer, 5 );
  96:	f7ff fffe 	bl	0 <DRAW_DisplayTemp>
C:\Downloaded Files\Virtual-Com-2\Virtual-Com-2\Project\Virtual_COM_Port\RIDE\CircleOS\src/draw.c:429
        }
    }
  9a:	bd7c      	pop	{r2, r3, r4, r5, r6, pc}
	...

Disassembly of section .text.DRAW_DisplayStringInverted:

00000000 <DRAW_DisplayStringInverted>:
DRAW_DisplayStringInverted():
C:\Downloaded Files\Virtual-Com-2\Virtual-Com-2\Project\Virtual_COM_Port\RIDE\CircleOS\src/draw.c:1123
*  @warning       The input string must be null-terminated.
*
**/
/******************************************************************************/
void DRAW_DisplayStringInverted( coord_t x, coord_t y, const u8* ptr, len_t len )
{
   0:	b513      	push	{r0, r1, r4, lr}
C:\Downloaded Files\Virtual-Com-2\Virtual-Com-2\Project\Virtual_COM_Port\RIDE\CircleOS\src/draw.c:1125
    //BackGround and Text Colors are inverted
    DRAW_DisplayStringWithMode( x, y, ptr, len, INVERTED_TEXT, LEFT );
   2:	2401      	movs	r4, #1
   4:	9400      	str	r4, [sp, #0]
   6:	3c01      	subs	r4, #1
   8:	9401      	str	r4, [sp, #4]
   a:	f7ff fffe 	bl	0 <DRAW_DisplayStringInverted>
C:\Downloaded Files\Virtual-Com-2\Virtual-Com-2\Project\Virtual_COM_Port\RIDE\CircleOS\src/draw.c:1126
}
   e:	bd1c      	pop	{r2, r3, r4, pc}

Disassembly of section .text.DRAW_SetDefaultColor:

00000000 <DRAW_SetDefaultColor>:
DRAW_SetDefaultColor():
C:\Downloaded Files\Virtual-Com-2\Virtual-Com-2\Project\Virtual_COM_Port\RIDE\CircleOS\src/draw.c:1141
*
**/
/******************************************************************************/
void DRAW_SetDefaultColor( void )
{
    BGndColor = RGB_WHITE;
   0:	4b03      	ldr	r3, [pc, #12]	; (10 <DRAW_SetDefaultColor+0x10>)
   2:	f04f 32ff 	mov.w	r2, #4294967295
   6:	801a      	strh	r2, [r3, #0]
C:\Downloaded Files\Virtual-Com-2\Virtual-Com-2\Project\Virtual_COM_Port\RIDE\CircleOS\src/draw.c:1142
    TextColor = RGB_BLACK;
   8:	4b02      	ldr	r3, [pc, #8]	; (14 <DRAW_SetDefaultColor+0x14>)
   a:	2200      	movs	r2, #0
   c:	801a      	strh	r2, [r3, #0]
C:\Downloaded Files\Virtual-Com-2\Virtual-Com-2\Project\Virtual_COM_Port\RIDE\CircleOS\src/draw.c:1143
}
   e:	4770      	bx	lr
	...

Disassembly of section .text.DRAW_Clear:

00000000 <DRAW_Clear>:
DRAW_Clear():
C:\Downloaded Files\Virtual-Com-2\Virtual-Com-2\Project\Virtual_COM_Port\RIDE\CircleOS\src/draw.c:582
*  Clear the LCD display. Draw Battery and background image if main display.
*
**/
/******************************************************************************/
void DRAW_Clear( void )
{
   0:	b513      	push	{r0, r1, r4, lr}
C:\Downloaded Files\Virtual-Com-2\Virtual-Com-2\Project\Virtual_COM_Port\RIDE\CircleOS\src/draw.c:586
//    enum POINTER_mode ptr_bak = POINTER_GetMode() ;

//    POINTER_SetMode( POINTER_OFF );
    if( (LCD_GetScreenOrientation()%2) == 1 )
   2:	f7ff fffe 	bl	0 <LCD_GetScreenOrientation>
   6:	f010 0001 	ands.w	r0, r0, #1
   a:	4b11      	ldr	r3, [pc, #68]	; (50 <DRAW_Clear+0x50>)
   c:	4911      	ldr	r1, [pc, #68]	; (54 <DRAW_Clear+0x54>)
   e:	4c12      	ldr	r4, [pc, #72]	; (58 <DRAW_Clear+0x58>)
  10:	d007      	beq.n	22 <DRAW_Clear+0x22>
C:\Downloaded Files\Virtual-Com-2\Virtual-Com-2\Project\Virtual_COM_Port\RIDE\CircleOS\src/draw.c:587
        LCD_FillRect_Circle( 0, 0, Screen_Height, Screen_Width, BGndColor );
  12:	f9b3 2000 	ldrsh.w	r2, [r3]
  16:	f9b1 3000 	ldrsh.w	r3, [r1]
  1a:	8821      	ldrh	r1, [r4, #0]
  1c:	2000      	movs	r0, #0
  1e:	9100      	str	r1, [sp, #0]
  20:	e005      	b.n	2e <DRAW_Clear+0x2e>
C:\Downloaded Files\Virtual-Com-2\Virtual-Com-2\Project\Virtual_COM_Port\RIDE\CircleOS\src/draw.c:589
    else
        LCD_FillRect_Circle( 0, 0, Screen_Width, Screen_Height, BGndColor );
  22:	f9b1 2000 	ldrsh.w	r2, [r1]
  26:	8821      	ldrh	r1, [r4, #0]
  28:	f9b3 3000 	ldrsh.w	r3, [r3]
  2c:	9100      	str	r1, [sp, #0]
  2e:	4601      	mov	r1, r0
  30:	f7ff fffe 	bl	0 <LCD_FillRect_Circle>
C:\Downloaded Files\Virtual-Com-2\Virtual-Com-2\Project\Virtual_COM_Port\RIDE\CircleOS\src/draw.c:594

//    if (( CurrentMenu == 0 ) && ( CurrentCommand == 0 )
//            && ( BUTTON_GetMode() == BUTTON_ONOFF_FORMAIN ) )
    {
        DRAW_SetDefaultColor();
  34:	f7ff fffe 	bl	0 <DRAW_Clear>
C:\Downloaded Files\Virtual-Com-2\Virtual-Com-2\Project\Virtual_COM_Port\RIDE\CircleOS\src/draw.c:595
        DRAW_SetLogoBW();
  38:	f7ff fffe 	bl	0 <DRAW_Clear>
C:\Downloaded Files\Virtual-Com-2\Virtual-Com-2\Project\Virtual_COM_Port\RIDE\CircleOS\src/draw.c:598
//        LCD_Clear( xBat, yBat );

        OldBatState  = 10;
  3c:	4b07      	ldr	r3, [pc, #28]	; (5c <DRAW_Clear+0x5c>)
  3e:	220a      	movs	r2, #10
  40:	801a      	strh	r2, [r3, #0]
C:\Downloaded Files\Virtual-Com-2\Virtual-Com-2\Project\Virtual_COM_Port\RIDE\CircleOS\src/draw.c:599
        OldTemp = -1;
  42:	f04f 33ff 	mov.w	r3, #4294967295
  46:	81a3      	strh	r3, [r4, #12]
C:\Downloaded Files\Virtual-Com-2\Virtual-Com-2\Project\Virtual_COM_Port\RIDE\CircleOS\src/draw.c:600
        fDisplayTime = 1;
  48:	4b05      	ldr	r3, [pc, #20]	; (60 <DRAW_Clear+0x60>)
  4a:	2201      	movs	r2, #1
  4c:	709a      	strb	r2, [r3, #2]
C:\Downloaded Files\Virtual-Com-2\Virtual-Com-2\Project\Virtual_COM_Port\RIDE\CircleOS\src/draw.c:604
    }

//    POINTER_SetMode( ptr_bak );
}
  4e:	bd1c      	pop	{r2, r3, r4, pc}
	...

Disassembly of section .text.DRAW_Init:

00000000 <DRAW_Init>:
DRAW_Init():
C:\Downloaded Files\Virtual-Com-2\Virtual-Com-2\Project\Virtual_COM_Port\RIDE\CircleOS\src/draw.c:124
*  @attention  This function must <b>NOT</b> be called by the user.
*
**/
/******************************************************************************/
NODEBUG2 void DRAW_Init( void )
{
   0:	b510      	push	{r4, lr}
C:\Downloaded Files\Virtual-Com-2\Virtual-Com-2\Project\Virtual_COM_Port\RIDE\CircleOS\src/draw.c:130

#if MEMS_POINTER     // Not necessary if no MEMS menu handling
    MEMS_GetRotation( &CurrentScreenOrientation );
#endif

    LCD_SetScreenOrientation( CurrentScreenOrientation );
   2:	4c0f      	ldr	r4, [pc, #60]	; (40 <DRAW_Init+0x40>)
   4:	7c60      	ldrb	r0, [r4, #17]
   6:	f7ff fffe 	bl	0 <LCD_SetScreenOrientation>
C:\Downloaded Files\Virtual-Com-2\Virtual-Com-2\Project\Virtual_COM_Port\RIDE\CircleOS\src/draw.c:132

    xBat        = Screen_Width - 30;
   a:	4b0e      	ldr	r3, [pc, #56]	; (44 <DRAW_Init+0x44>)
   c:	8819      	ldrh	r1, [r3, #0]
   e:	4b0e      	ldr	r3, [pc, #56]	; (48 <DRAW_Init+0x48>)
  10:	f1a1 021e 	sub.w	r2, r1, #30
  14:	801a      	strh	r2, [r3, #0]
C:\Downloaded Files\Virtual-Com-2\Virtual-Com-2\Project\Virtual_COM_Port\RIDE\CircleOS\src/draw.c:133
    yBat        = 3;
  16:	4b0d      	ldr	r3, [pc, #52]	; (4c <DRAW_Init+0x4c>)
  18:	2203      	movs	r2, #3
  1a:	801a      	strh	r2, [r3, #0]
C:\Downloaded Files\Virtual-Com-2\Virtual-Com-2\Project\Virtual_COM_Port\RIDE\CircleOS\src/draw.c:134
    OldBatState = 10;
  1c:	4b0c      	ldr	r3, [pc, #48]	; (50 <DRAW_Init+0x50>)
  1e:	220a      	movs	r2, #10
  20:	801a      	strh	r2, [r3, #0]
C:\Downloaded Files\Virtual-Com-2\Virtual-Com-2\Project\Virtual_COM_Port\RIDE\CircleOS\src/draw.c:135
    PosCurY = Screen_Height - Char_Height;
  22:	4b0c      	ldr	r3, [pc, #48]	; (54 <DRAW_Init+0x54>)
  24:	881a      	ldrh	r2, [r3, #0]
  26:	4b0c      	ldr	r3, [pc, #48]	; (58 <DRAW_Init+0x58>)
  28:	781b      	ldrb	r3, [r3, #0]
  2a:	1ad3      	subs	r3, r2, r3
  2c:	8263      	strh	r3, [r4, #18]
C:\Downloaded Files\Virtual-Com-2\Virtual-Com-2\Project\Virtual_COM_Port\RIDE\CircleOS\src/draw.c:136
    RightMarginX = Screen_Width;
  2e:	4b0b      	ldr	r3, [pc, #44]	; (5c <DRAW_Init+0x5c>)
  30:	81d9      	strh	r1, [r3, #14]
C:\Downloaded Files\Virtual-Com-2\Virtual-Com-2\Project\Virtual_COM_Port\RIDE\CircleOS\src/draw.c:137
    HighMarginY = Screen_Height;
  32:	821a      	strh	r2, [r3, #16]
C:\Downloaded Files\Virtual-Com-2\Virtual-Com-2\Project\Virtual_COM_Port\RIDE\CircleOS\src/draw.c:140

    /* Clear LCD and draw black and white logo*/
    DRAW_SetDefaultColor();
  34:	f7ff fffe 	bl	0 <DRAW_Init>
C:\Downloaded Files\Virtual-Com-2\Virtual-Com-2\Project\Virtual_COM_Port\RIDE\CircleOS\src/draw.c:144
    DRAW_Clear();
//    LCD_Batt( xBat, yBat, fDisplayTime, BatState, &OldBatState, divider_coord, &widthBat, &heightBat );
//    POINTER_Init();
}
  38:	e8bd 4010 	ldmia.w	sp!, {r4, lr}
C:\Downloaded Files\Virtual-Com-2\Virtual-Com-2\Project\Virtual_COM_Port\RIDE\CircleOS\src/draw.c:141
    RightMarginX = Screen_Width;
    HighMarginY = Screen_Height;

    /* Clear LCD and draw black and white logo*/
    DRAW_SetDefaultColor();
    DRAW_Clear();
  3c:	f7ff bffe 	b.w	0 <DRAW_Init>
	...

Disassembly of section .text.DRAW_Line:

00000000 <DRAW_Line>:
DRAW_Line():
C:\Downloaded Files\Virtual-Com-2\Virtual-Com-2\Project\Virtual_COM_Port\RIDE\CircleOS\src/draw.c:1166
*  @note                   This function is just a wrapper with limit checking
*
**/
/******************************************************************************/
void DRAW_Line( coord_t x1, coord_t y1, coord_t x2, coord_t y2, color_t color )
{
   0:	b570      	push	{r4, r5, r6, lr}
C:\Downloaded Files\Virtual-Com-2\Virtual-Com-2\Project\Virtual_COM_Port\RIDE\CircleOS\src/draw.c:1173
    if ( x1 < 0 )
        x1 = 0;
    if ( x2 < 0 )
        x2 = 0;

    if ( x1 > Screen_Width - 1 )
   2:	4d12      	ldr	r5, [pc, #72]	; (4c <DRAW_Line+0x4c>)
C:\Downloaded Files\Virtual-Com-2\Virtual-Com-2\Project\Virtual_COM_Port\RIDE\CircleOS\src/draw.c:1166
*  @note                   This function is just a wrapper with limit checking
*
**/
/******************************************************************************/
void DRAW_Line( coord_t x1, coord_t y1, coord_t x2, coord_t y2, color_t color )
{
   4:	ea20 70e0 	bic.w	r0, r0, r0, asr #31
C:\Downloaded Files\Virtual-Com-2\Virtual-Com-2\Project\Virtual_COM_Port\RIDE\CircleOS\src/draw.c:1173
    if ( x1 < 0 )
        x1 = 0;
    if ( x2 < 0 )
        x2 = 0;

    if ( x1 > Screen_Width - 1 )
   8:	882d      	ldrh	r5, [r5, #0]
C:\Downloaded Files\Virtual-Com-2\Virtual-Com-2\Project\Virtual_COM_Port\RIDE\CircleOS\src/draw.c:1166
*  @note                   This function is just a wrapper with limit checking
*
**/
/******************************************************************************/
void DRAW_Line( coord_t x1, coord_t y1, coord_t x2, coord_t y2, color_t color )
{
   a:	f8bd 4010 	ldrh.w	r4, [sp, #16]
C:\Downloaded Files\Virtual-Com-2\Virtual-Com-2\Project\Virtual_COM_Port\RIDE\CircleOS\src/draw.c:1173
    if ( x1 < 0 )
        x1 = 0;
    if ( x2 < 0 )
        x2 = 0;

    if ( x1 > Screen_Width - 1 )
   e:	b22e      	sxth	r6, r5
  10:	4286      	cmp	r6, r0
C:\Downloaded Files\Virtual-Com-2\Virtual-Com-2\Project\Virtual_COM_Port\RIDE\CircleOS\src/draw.c:1166
*  @note                   This function is just a wrapper with limit checking
*
**/
/******************************************************************************/
void DRAW_Line( coord_t x1, coord_t y1, coord_t x2, coord_t y2, color_t color )
{
  12:	ea22 72e2 	bic.w	r2, r2, r2, asr #31
C:\Downloaded Files\Virtual-Com-2\Virtual-Com-2\Project\Virtual_COM_Port\RIDE\CircleOS\src/draw.c:1173
    if ( x1 < 0 )
        x1 = 0;
    if ( x2 < 0 )
        x2 = 0;

    if ( x1 > Screen_Width - 1 )
  16:	dc01      	bgt.n	1c <DRAW_Line+0x1c>
C:\Downloaded Files\Virtual-Com-2\Virtual-Com-2\Project\Virtual_COM_Port\RIDE\CircleOS\src/draw.c:1174
        x1 = Screen_Width - 1;
  18:	1e68      	subs	r0, r5, #1
  1a:	b200      	sxth	r0, r0
C:\Downloaded Files\Virtual-Com-2\Virtual-Com-2\Project\Virtual_COM_Port\RIDE\CircleOS\src/draw.c:1175
    if ( x2 > Screen_Width - 1 )
  1c:	4296      	cmp	r6, r2
  1e:	dc01      	bgt.n	24 <DRAW_Line+0x24>
C:\Downloaded Files\Virtual-Com-2\Virtual-Com-2\Project\Virtual_COM_Port\RIDE\CircleOS\src/draw.c:1176
        x2 = Screen_Width - 1;
  20:	1e6a      	subs	r2, r5, #1
  22:	b212      	sxth	r2, r2
C:\Downloaded Files\Virtual-Com-2\Virtual-Com-2\Project\Virtual_COM_Port\RIDE\CircleOS\src/draw.c:1184
    if ( y1 < 0 )
        y1 = 0;
    if ( y2 < 0 )
        y2 = 0;

    if ( y1 > Screen_Height - 1 )
  24:	4d0a      	ldr	r5, [pc, #40]	; (50 <DRAW_Line+0x50>)
C:\Downloaded Files\Virtual-Com-2\Virtual-Com-2\Project\Virtual_COM_Port\RIDE\CircleOS\src/draw.c:1176
        x2 = 0;

    if ( x1 > Screen_Width - 1 )
        x1 = Screen_Width - 1;
    if ( x2 > Screen_Width - 1 )
        x2 = Screen_Width - 1;
  26:	ea21 71e1 	bic.w	r1, r1, r1, asr #31
C:\Downloaded Files\Virtual-Com-2\Virtual-Com-2\Project\Virtual_COM_Port\RIDE\CircleOS\src/draw.c:1184
    if ( y1 < 0 )
        y1 = 0;
    if ( y2 < 0 )
        y2 = 0;

    if ( y1 > Screen_Height - 1 )
  2a:	882d      	ldrh	r5, [r5, #0]
C:\Downloaded Files\Virtual-Com-2\Virtual-Com-2\Project\Virtual_COM_Port\RIDE\CircleOS\src/draw.c:1176
        x2 = 0;

    if ( x1 > Screen_Width - 1 )
        x1 = Screen_Width - 1;
    if ( x2 > Screen_Width - 1 )
        x2 = Screen_Width - 1;
  2c:	ea23 73e3 	bic.w	r3, r3, r3, asr #31
C:\Downloaded Files\Virtual-Com-2\Virtual-Com-2\Project\Virtual_COM_Port\RIDE\CircleOS\src/draw.c:1184
    if ( y1 < 0 )
        y1 = 0;
    if ( y2 < 0 )
        y2 = 0;

    if ( y1 > Screen_Height - 1 )
  30:	b22e      	sxth	r6, r5
  32:	428e      	cmp	r6, r1
  34:	dc01      	bgt.n	3a <DRAW_Line+0x3a>
C:\Downloaded Files\Virtual-Com-2\Virtual-Com-2\Project\Virtual_COM_Port\RIDE\CircleOS\src/draw.c:1185
        y1 = Screen_Height - 1;
  36:	1e69      	subs	r1, r5, #1
  38:	b209      	sxth	r1, r1
C:\Downloaded Files\Virtual-Com-2\Virtual-Com-2\Project\Virtual_COM_Port\RIDE\CircleOS\src/draw.c:1186
    if ( y2 > Screen_Height - 1 )
  3a:	429e      	cmp	r6, r3
  3c:	dc01      	bgt.n	42 <DRAW_Line+0x42>
C:\Downloaded Files\Virtual-Com-2\Virtual-Com-2\Project\Virtual_COM_Port\RIDE\CircleOS\src/draw.c:1187
        y2 = Screen_Height - 1;
  3e:	1e6b      	subs	r3, r5, #1
  40:	b21b      	sxth	r3, r3
C:\Downloaded Files\Virtual-Com-2\Virtual-Com-2\Project\Virtual_COM_Port\RIDE\CircleOS\src/draw.c:1190

    /* Call the native function*/
    DRAW_Line_Circle( x1, y1, x2, y2, color );
  42:	9404      	str	r4, [sp, #16]
C:\Downloaded Files\Virtual-Com-2\Virtual-Com-2\Project\Virtual_COM_Port\RIDE\CircleOS\src/draw.c:1191
}
  44:	e8bd 4070 	ldmia.w	sp!, {r4, r5, r6, lr}
C:\Downloaded Files\Virtual-Com-2\Virtual-Com-2\Project\Virtual_COM_Port\RIDE\CircleOS\src/draw.c:1190
        y1 = Screen_Height - 1;
    if ( y2 > Screen_Height - 1 )
        y2 = Screen_Height - 1;

    /* Call the native function*/
    DRAW_Line_Circle( x1, y1, x2, y2, color );
  48:	f7ff bffe 	b.w	0 <DRAW_Line>
	...

Disassembly of section .text.DRAW_Cross_Absolute:

00000000 <DRAW_Cross_Absolute>:
DRAW_Cross_Absolute():
C:\Downloaded Files\Virtual-Com-2\Virtual-Com-2\Project\Virtual_COM_Port\RIDE\CircleOS\src/draw.c:357
*       @param[in] color : color of the crow
*       @param[in] CrossSize : size of the cross in pixels
**/
/******************************************************************************/
NODEBUG2 void DRAW_Cross_Absolute( coord_t x1, coord_t y1, color_t color, u16 CrossSize )
{
   0:	b5f7      	push	{r0, r1, r2, r4, r5, r6, r7, lr}
   2:	4616      	mov	r6, r2
C:\Downloaded Files\Virtual-Com-2\Virtual-Com-2\Project\Virtual_COM_Port\RIDE\CircleOS\src/draw.c:358
    DRAW_Line( x1 - CrossSize, y1, x1 + CrossSize, y1, color );
   4:	b282      	uxth	r2, r0
C:\Downloaded Files\Virtual-Com-2\Virtual-Com-2\Project\Virtual_COM_Port\RIDE\CircleOS\src/draw.c:357
*       @param[in] color : color of the crow
*       @param[in] CrossSize : size of the cross in pixels
**/
/******************************************************************************/
NODEBUG2 void DRAW_Cross_Absolute( coord_t x1, coord_t y1, color_t color, u16 CrossSize )
{
   6:	4605      	mov	r5, r0
   8:	460f      	mov	r7, r1
C:\Downloaded Files\Virtual-Com-2\Virtual-Com-2\Project\Virtual_COM_Port\RIDE\CircleOS\src/draw.c:358
    DRAW_Line( x1 - CrossSize, y1, x1 + CrossSize, y1, color );
   a:	1ad0      	subs	r0, r2, r3
   c:	189a      	adds	r2, r3, r2
C:\Downloaded Files\Virtual-Com-2\Virtual-Com-2\Project\Virtual_COM_Port\RIDE\CircleOS\src/draw.c:357
*       @param[in] color : color of the crow
*       @param[in] CrossSize : size of the cross in pixels
**/
/******************************************************************************/
NODEBUG2 void DRAW_Cross_Absolute( coord_t x1, coord_t y1, color_t color, u16 CrossSize )
{
   e:	461c      	mov	r4, r3
C:\Downloaded Files\Virtual-Com-2\Virtual-Com-2\Project\Virtual_COM_Port\RIDE\CircleOS\src/draw.c:359
    DRAW_Line( x1 - CrossSize, y1, x1 + CrossSize, y1, color );
    DRAW_Line( x1, y1 - CrossSize, x1, y1 + CrossSize, color );
  10:	b2bf      	uxth	r7, r7
C:\Downloaded Files\Virtual-Com-2\Virtual-Com-2\Project\Virtual_COM_Port\RIDE\CircleOS\src/draw.c:358
*       @param[in] CrossSize : size of the cross in pixels
**/
/******************************************************************************/
NODEBUG2 void DRAW_Cross_Absolute( coord_t x1, coord_t y1, color_t color, u16 CrossSize )
{
    DRAW_Line( x1 - CrossSize, y1, x1 + CrossSize, y1, color );
  12:	460b      	mov	r3, r1
  14:	b200      	sxth	r0, r0
  16:	b212      	sxth	r2, r2
  18:	9600      	str	r6, [sp, #0]
  1a:	f7ff fffe 	bl	0 <DRAW_Cross_Absolute>
C:\Downloaded Files\Virtual-Com-2\Virtual-Com-2\Project\Virtual_COM_Port\RIDE\CircleOS\src/draw.c:359
    DRAW_Line( x1, y1 - CrossSize, x1, y1 + CrossSize, color );
  1e:	1b39      	subs	r1, r7, r4
  20:	19e4      	adds	r4, r4, r7
  22:	4628      	mov	r0, r5
  24:	b209      	sxth	r1, r1
  26:	462a      	mov	r2, r5
  28:	b223      	sxth	r3, r4
  2a:	9600      	str	r6, [sp, #0]
  2c:	f7ff fffe 	bl	0 <DRAW_Cross_Absolute>
C:\Downloaded Files\Virtual-Com-2\Virtual-Com-2\Project\Virtual_COM_Port\RIDE\CircleOS\src/draw.c:360
}
  30:	bdfe      	pop	{r1, r2, r3, r4, r5, r6, r7, pc}

Disassembly of section .text.DRAW_Putc:

00000000 <DRAW_Putc>:
DRAW_Putc():
C:\Downloaded Files\Virtual-Com-2\Virtual-Com-2\Project\Virtual_COM_Port\RIDE\CircleOS\src/draw.c:1214
*  @see           DRAW_SetCursorMargin

**/
/******************************************************************************/
void DRAW_Putc( u8 Ascii )
{
   0:	b5f0      	push	{r4, r5, r6, r7, lr}
C:\Downloaded Files\Virtual-Com-2\Virtual-Com-2\Project\Virtual_COM_Port\RIDE\CircleOS\src/draw.c:1215
    u16 Char_Y = Char_Height * CharMagniCoeff;
   2:	4b2c      	ldr	r3, [pc, #176]	; (b4 <DRAW_Putc+0xb4>)
   4:	4d2c      	ldr	r5, [pc, #176]	; (b8 <DRAW_Putc+0xb8>)
C:\Downloaded Files\Virtual-Com-2\Virtual-Com-2\Project\Virtual_COM_Port\RIDE\CircleOS\src/draw.c:1214
*  @see           DRAW_SetCursorMargin

**/
/******************************************************************************/
void DRAW_Putc( u8 Ascii )
{
   6:	4607      	mov	r7, r0
C:\Downloaded Files\Virtual-Com-2\Virtual-Com-2\Project\Virtual_COM_Port\RIDE\CircleOS\src/draw.c:1215
    u16 Char_Y = Char_Height * CharMagniCoeff;
   8:	781a      	ldrb	r2, [r3, #0]
   a:	6868      	ldr	r0, [r5, #4]
C:\Downloaded Files\Virtual-Com-2\Virtual-Com-2\Project\Virtual_COM_Port\RIDE\CircleOS\src/draw.c:1214
*  @see           DRAW_SetCursorMargin

**/
/******************************************************************************/
void DRAW_Putc( u8 Ascii )
{
   c:	b087      	sub	sp, #28
C:\Downloaded Files\Virtual-Com-2\Virtual-Com-2\Project\Virtual_COM_Port\RIDE\CircleOS\src/draw.c:1215
    u16 Char_Y = Char_Height * CharMagniCoeff;
   e:	4342      	muls	r2, r0
C:\Downloaded Files\Virtual-Com-2\Virtual-Com-2\Project\Virtual_COM_Port\RIDE\CircleOS\src/draw.c:1218

    /* CRLF ? */
    if (( Ascii == '\n' ) )
  10:	2f0a      	cmp	r7, #10
C:\Downloaded Files\Virtual-Com-2\Virtual-Com-2\Project\Virtual_COM_Port\RIDE\CircleOS\src/draw.c:1215

**/
/******************************************************************************/
void DRAW_Putc( u8 Ascii )
{
    u16 Char_Y = Char_Height * CharMagniCoeff;
  12:	b292      	uxth	r2, r2
  14:	4c29      	ldr	r4, [pc, #164]	; (bc <DRAW_Putc+0xbc>)
C:\Downloaded Files\Virtual-Com-2\Virtual-Com-2\Project\Virtual_COM_Port\RIDE\CircleOS\src/draw.c:1218

    /* CRLF ? */
    if (( Ascii == '\n' ) )
  16:	d10a      	bne.n	2e <DRAW_Putc+0x2e>
C:\Downloaded Files\Virtual-Com-2\Virtual-Com-2\Project\Virtual_COM_Port\RIDE\CircleOS\src/draw.c:1220
    {
        PosCurX = LeftMarginX;
  18:	8ae1      	ldrh	r1, [r4, #22]
C:\Downloaded Files\Virtual-Com-2\Virtual-Com-2\Project\Virtual_COM_Port\RIDE\CircleOS\src/draw.c:1221
        if ( PosCurY >= LowMarginY )
  1a:	8a63      	ldrh	r3, [r4, #18]
  1c:	f9b4 0018 	ldrsh.w	r0, [r4, #24]
C:\Downloaded Files\Virtual-Com-2\Virtual-Com-2\Project\Virtual_COM_Port\RIDE\CircleOS\src/draw.c:1220
    u16 Char_Y = Char_Height * CharMagniCoeff;

    /* CRLF ? */
    if (( Ascii == '\n' ) )
    {
        PosCurX = LeftMarginX;
  20:	82a1      	strh	r1, [r4, #20]
C:\Downloaded Files\Virtual-Com-2\Virtual-Com-2\Project\Virtual_COM_Port\RIDE\CircleOS\src/draw.c:1221
        if ( PosCurY >= LowMarginY )
  22:	b219      	sxth	r1, r3
  24:	4288      	cmp	r0, r1
  26:	dc42      	bgt.n	ae <DRAW_Putc+0xae>
C:\Downloaded Files\Virtual-Com-2\Virtual-Com-2\Project\Virtual_COM_Port\RIDE\CircleOS\src/draw.c:1223
        {
            PosCurY -= Char_Y;
  28:	1a9a      	subs	r2, r3, r2
  2a:	8262      	strh	r2, [r4, #18]
  2c:	e03f      	b.n	ae <DRAW_Putc+0xae>
C:\Downloaded Files\Virtual-Com-2\Virtual-Com-2\Project\Virtual_COM_Port\RIDE\CircleOS\src/draw.c:1229
        }
        return;
    }

    /* Line change, if end of line reached*/
    if (( PosCurX + ( Char_Width * CharMagniCoeff ) ) > RightMarginX )
  2e:	4e24      	ldr	r6, [pc, #144]	; (c0 <DRAW_Putc+0xc0>)
  30:	f9b4 1014 	ldrsh.w	r1, [r4, #20]
  34:	f896 e000 	ldrb.w	lr, [r6]
  38:	89eb      	ldrh	r3, [r5, #14]
  3a:	fb00 1e0e 	mla	lr, r0, lr, r1
  3e:	b219      	sxth	r1, r3
  40:	458e      	cmp	lr, r1
  42:	dd04      	ble.n	4e <DRAW_Putc+0x4e>
C:\Downloaded Files\Virtual-Com-2\Virtual-Com-2\Project\Virtual_COM_Port\RIDE\CircleOS\src/draw.c:1231
    {
        PosCurX = LeftMarginX;
  44:	8ae1      	ldrh	r1, [r4, #22]
  46:	82a1      	strh	r1, [r4, #20]
C:\Downloaded Files\Virtual-Com-2\Virtual-Com-2\Project\Virtual_COM_Port\RIDE\CircleOS\src/draw.c:1232
        PosCurY -= Char_Y;
  48:	8a61      	ldrh	r1, [r4, #18]
  4a:	1a8a      	subs	r2, r1, r2
  4c:	8262      	strh	r2, [r4, #18]
C:\Downloaded Files\Virtual-Com-2\Virtual-Com-2\Project\Virtual_COM_Port\RIDE\CircleOS\src/draw.c:1236
    }

    /* Normal print if end of screen not reached*/
    if ( PosCurY >= LowMarginY )
  4e:	f9b4 e012 	ldrsh.w	lr, [r4, #18]
  52:	f9b4 c018 	ldrsh.w	ip, [r4, #24]
  56:	4a19      	ldr	r2, [pc, #100]	; (bc <DRAW_Putc+0xbc>)
  58:	45e6      	cmp	lr, ip
  5a:	f9b4 1014 	ldrsh.w	r1, [r4, #20]
  5e:	db09      	blt.n	74 <DRAW_Putc+0x74>
C:\Downloaded Files\Virtual-Com-2\Virtual-Com-2\Project\Virtual_COM_Port\RIDE\CircleOS\src/draw.c:1239
    {
        /* Display the selected bitmap according to the provided ASCII character.*/
        LCD_DisplayChar( PosCurX, PosCurY, Ascii, TextColor, BGndColor, CharMagniCoeff );
  60:	8813      	ldrh	r3, [r2, #0]
  62:	882a      	ldrh	r2, [r5, #0]
  64:	9001      	str	r0, [sp, #4]
  66:	9200      	str	r2, [sp, #0]
  68:	4608      	mov	r0, r1
  6a:	463a      	mov	r2, r7
  6c:	4671      	mov	r1, lr
  6e:	f7ff fffe 	bl	0 <LCD_DisplayChar>
  72:	e016      	b.n	a2 <DRAW_Putc+0xa2>
C:\Downloaded Files\Virtual-Com-2\Virtual-Com-2\Project\Virtual_COM_Port\RIDE\CircleOS\src/draw.c:1243
    }
    else
    {
        LCD_Scroll( Ascii, PosCurX, &PosCurY, RightMarginX, LeftMarginX, HighMarginY, LowMarginY, BGndColor, TextColor, CharMagniCoeff );
  74:	f9b2 e016 	ldrsh.w	lr, [r2, #22]
  78:	f8cd c008 	str.w	ip, [sp, #8]
  7c:	f8cd e000 	str.w	lr, [sp]
  80:	f9b5 e010 	ldrsh.w	lr, [r5, #16]
  84:	b21b      	sxth	r3, r3
  86:	f8cd e004 	str.w	lr, [sp, #4]
  8a:	f8b5 e000 	ldrh.w	lr, [r5]
  8e:	f8cd e00c 	str.w	lr, [sp, #12]
  92:	f832 eb12 	ldrh.w	lr, [r2], #18
  96:	9005      	str	r0, [sp, #20]
  98:	4638      	mov	r0, r7
  9a:	f8cd e010 	str.w	lr, [sp, #16]
  9e:	f7ff fffe 	bl	0 <LCD_Scroll>
C:\Downloaded Files\Virtual-Com-2\Virtual-Com-2\Project\Virtual_COM_Port\RIDE\CircleOS\src/draw.c:1246
    }

    PosCurX += ( Char_Width * CharMagniCoeff );
  a2:	8aa2      	ldrh	r2, [r4, #20]
  a4:	686b      	ldr	r3, [r5, #4]
  a6:	7831      	ldrb	r1, [r6, #0]
  a8:	fb01 2303 	mla	r3, r1, r3, r2
  ac:	82a3      	strh	r3, [r4, #20]
C:\Downloaded Files\Virtual-Com-2\Virtual-Com-2\Project\Virtual_COM_Port\RIDE\CircleOS\src/draw.c:1247
}
  ae:	b007      	add	sp, #28
  b0:	bdf0      	pop	{r4, r5, r6, r7, pc}
  b2:	bf00      	nop
	...

Disassembly of section .text.DRAW_Puts:

00000000 <DRAW_Puts>:
DRAW_Puts():
C:\Downloaded Files\Virtual-Com-2\Virtual-Com-2\Project\Virtual_COM_Port\RIDE\CircleOS\src/draw.c:1272
*  @see           DRAW_DisplayStringInverted
*
**/
/******************************************************************************/
void DRAW_Puts( const u8* ptr )
{
   0:	b510      	push	{r4, lr}
   2:	4604      	mov	r4, r0
C:\Downloaded Files\Virtual-Com-2\Virtual-Com-2\Project\Virtual_COM_Port\RIDE\CircleOS\src/draw.c:1274
    /* Display each character on LCD */
    while ( *ptr != 0 )
   4:	e001      	b.n	a <DRAW_Puts+0xa>
C:\Downloaded Files\Virtual-Com-2\Virtual-Com-2\Project\Virtual_COM_Port\RIDE\CircleOS\src/draw.c:1277
    {
        /* Display the character on LCD */
        DRAW_Putc( *ptr );
   6:	f7ff fffe 	bl	0 <DRAW_Puts>
C:\Downloaded Files\Virtual-Com-2\Virtual-Com-2\Project\Virtual_COM_Port\RIDE\CircleOS\src/draw.c:1274
**/
/******************************************************************************/
void DRAW_Puts( const u8* ptr )
{
    /* Display each character on LCD */
    while ( *ptr != 0 )
   a:	f814 0b01 	ldrb.w	r0, [r4], #1
   e:	2800      	cmp	r0, #0
  10:	d1f9      	bne.n	6 <DRAW_Puts+0x6>
C:\Downloaded Files\Virtual-Com-2\Virtual-Com-2\Project\Virtual_COM_Port\RIDE\CircleOS\src/draw.c:1282
        DRAW_Putc( *ptr );

        /* Point to the next character */
        ptr++;
    }
}
  12:	bd10      	pop	{r4, pc}

Disassembly of section .text.DRAW_SetCursorPos:

00000000 <DRAW_SetCursorPos>:
DRAW_SetCursorPos():
C:\Downloaded Files\Virtual-Com-2\Virtual-Com-2\Project\Virtual_COM_Port\RIDE\CircleOS\src/draw.c:1303
*
**/
/******************************************************************************/
void DRAW_SetCursorPos( coord_t x, coord_t y )
{
    if ( x < LeftMarginX )
   0:	4a10      	ldr	r2, [pc, #64]	; (44 <DRAW_SetCursorPos+0x44>)
C:\Downloaded Files\Virtual-Com-2\Virtual-Com-2\Project\Virtual_COM_Port\RIDE\CircleOS\src/draw.c:1302
*  @warning       The (0x0) point in on the low left corner.
*
**/
/******************************************************************************/
void DRAW_SetCursorPos( coord_t x, coord_t y )
{
   2:	b530      	push	{r4, r5, lr}
C:\Downloaded Files\Virtual-Com-2\Virtual-Com-2\Project\Virtual_COM_Port\RIDE\CircleOS\src/draw.c:1303
    if ( x < LeftMarginX )
   4:	f9b2 3016 	ldrsh.w	r3, [r2, #22]
   8:	4298      	cmp	r0, r3
   a:	db05      	blt.n	18 <DRAW_SetCursorPos+0x18>
   c:	4b0e      	ldr	r3, [pc, #56]	; (48 <DRAW_SetCursorPos+0x48>)
   e:	f9b3 300e 	ldrsh.w	r3, [r3, #14]
  12:	4298      	cmp	r0, r3
  14:	bfb8      	it	lt
  16:	4603      	movlt	r3, r0
C:\Downloaded Files\Virtual-Com-2\Virtual-Com-2\Project\Virtual_COM_Port\RIDE\CircleOS\src/draw.c:1307
        x = LeftMarginX;
    else if ( x > RightMarginX )
        x = RightMarginX;
    PosCurX = x;
  18:	8293      	strh	r3, [r2, #20]
C:\Downloaded Files\Virtual-Com-2\Virtual-Com-2\Project\Virtual_COM_Port\RIDE\CircleOS\src/draw.c:1309

    if ( y < LowMarginY )
  1a:	f9b2 3018 	ldrsh.w	r3, [r2, #24]
  1e:	4299      	cmp	r1, r3
  20:	db0d      	blt.n	3e <DRAW_SetCursorPos+0x3e>
C:\Downloaded Files\Virtual-Com-2\Virtual-Com-2\Project\Virtual_COM_Port\RIDE\CircleOS\src/draw.c:1311
        y = LowMarginY;
    else if ( y > HighMarginY - ( Char_Height * CharMagniCoeff ) )
  22:	4c09      	ldr	r4, [pc, #36]	; (48 <DRAW_SetCursorPos+0x48>)
  24:	4b09      	ldr	r3, [pc, #36]	; (4c <DRAW_SetCursorPos+0x4c>)
  26:	6865      	ldr	r5, [r4, #4]
  28:	781b      	ldrb	r3, [r3, #0]
  2a:	8a20      	ldrh	r0, [r4, #16]
  2c:	436b      	muls	r3, r5
  2e:	b204      	sxth	r4, r0
  30:	1ae4      	subs	r4, r4, r3
  32:	42a1      	cmp	r1, r4
C:\Downloaded Files\Virtual-Com-2\Virtual-Com-2\Project\Virtual_COM_Port\RIDE\CircleOS\src/draw.c:1312
        y = HighMarginY - ( Char_Height * CharMagniCoeff );
  34:	bfc6      	itte	gt
  36:	ebc3 0300 	rsbgt	r3, r3, r0
  3a:	b21b      	sxthgt	r3, r3
C:\Downloaded Files\Virtual-Com-2\Virtual-Com-2\Project\Virtual_COM_Port\RIDE\CircleOS\src/draw.c:1311
        x = RightMarginX;
    PosCurX = x;

    if ( y < LowMarginY )
        y = LowMarginY;
    else if ( y > HighMarginY - ( Char_Height * CharMagniCoeff ) )
  3c:	460b      	movle	r3, r1
C:\Downloaded Files\Virtual-Com-2\Virtual-Com-2\Project\Virtual_COM_Port\RIDE\CircleOS\src/draw.c:1313
        y = HighMarginY - ( Char_Height * CharMagniCoeff );
    PosCurY = y;
  3e:	8253      	strh	r3, [r2, #18]
C:\Downloaded Files\Virtual-Com-2\Virtual-Com-2\Project\Virtual_COM_Port\RIDE\CircleOS\src/draw.c:1314
}
  40:	bd30      	pop	{r4, r5, pc}
  42:	bf00      	nop
	...

Disassembly of section .text.DRAW_GetCursorPos:

00000000 <DRAW_GetCursorPos>:
DRAW_GetCursorPos():
C:\Downloaded Files\Virtual-Com-2\Virtual-Com-2\Project\Virtual_COM_Port\RIDE\CircleOS\src/draw.c:1333
*
**/
/******************************************************************************/
ret_t DRAW_GetCursorPos( void )
{
    return ( PosCurX | ( PosCurY << 8 ) );
   0:	4b03      	ldr	r3, [pc, #12]	; (10 <DRAW_GetCursorPos+0x10>)
   2:	f9b3 0012 	ldrsh.w	r0, [r3, #18]
   6:	f9b3 3014 	ldrsh.w	r3, [r3, #20]
C:\Downloaded Files\Virtual-Com-2\Virtual-Com-2\Project\Virtual_COM_Port\RIDE\CircleOS\src/draw.c:1334
}
   a:	ea43 2000 	orr.w	r0, r3, r0, lsl #8
   e:	4770      	bx	lr
  10:	00000000 	.word	0x00000000

Disassembly of section .text.DRAW_SetCursorMargin:

00000000 <DRAW_SetCursorMargin>:
DRAW_SetCursorMargin():
C:\Downloaded Files\Virtual-Com-2\Virtual-Com-2\Project\Virtual_COM_Port\RIDE\CircleOS\src/draw.c:1356
*  @warning       The (0x0) point in on the low left corner.
*
**/
/******************************************************************************/
void DRAW_SetCursorMargin( coord_t lx, coord_t rx, coord_t hy, coord_t ly )
{
   0:	b510      	push	{r4, lr}
C:\Downloaded Files\Virtual-Com-2\Virtual-Com-2\Project\Virtual_COM_Port\RIDE\CircleOS\src/draw.c:1360
    if ( lx < 0 )
        lx = 0;

    if ( rx > Screen_Width )
   2:	4c10      	ldr	r4, [pc, #64]	; (44 <DRAW_SetCursorMargin+0x44>)
C:\Downloaded Files\Virtual-Com-2\Virtual-Com-2\Project\Virtual_COM_Port\RIDE\CircleOS\src/draw.c:1371
    RightMarginX = rx;

    if ( ly < 0 )
        ly = 0;

    if ( hy > Screen_Height )
   4:	ea20 70e0 	bic.w	r0, r0, r0, asr #31
C:\Downloaded Files\Virtual-Com-2\Virtual-Com-2\Project\Virtual_COM_Port\RIDE\CircleOS\src/draw.c:1360
void DRAW_SetCursorMargin( coord_t lx, coord_t rx, coord_t hy, coord_t ly )
{
    if ( lx < 0 )
        lx = 0;

    if ( rx > Screen_Width )
   8:	f9b4 4000 	ldrsh.w	r4, [r4]
   c:	42a1      	cmp	r1, r4
   e:	dc04      	bgt.n	1a <DRAW_SetCursorMargin+0x1a>
C:\Downloaded Files\Virtual-Com-2\Virtual-Com-2\Project\Virtual_COM_Port\RIDE\CircleOS\src/draw.c:1362
        rx = Screen_Width;
    else if ( lx > rx )      // else-if necessary in case lx==rx==Screen_Width
  10:	4288      	cmp	r0, r1
  12:	dd03      	ble.n	1c <DRAW_SetCursorMargin+0x1c>
C:\Downloaded Files\Virtual-Com-2\Virtual-Com-2\Project\Virtual_COM_Port\RIDE\CircleOS\src/draw.c:1363
        lx = rx - 1;
  14:	1e48      	subs	r0, r1, #1
  16:	b200      	sxth	r0, r0
  18:	e000      	b.n	1c <DRAW_SetCursorMargin+0x1c>
C:\Downloaded Files\Virtual-Com-2\Virtual-Com-2\Project\Virtual_COM_Port\RIDE\CircleOS\src/draw.c:1360
void DRAW_SetCursorMargin( coord_t lx, coord_t rx, coord_t hy, coord_t ly )
{
    if ( lx < 0 )
        lx = 0;

    if ( rx > Screen_Width )
  1a:	4621      	mov	r1, r4
C:\Downloaded Files\Virtual-Com-2\Virtual-Com-2\Project\Virtual_COM_Port\RIDE\CircleOS\src/draw.c:1365
        rx = Screen_Width;
    else if ( lx > rx )      // else-if necessary in case lx==rx==Screen_Width
        lx = rx - 1;

    LeftMarginX = lx;
  1c:	4c0a      	ldr	r4, [pc, #40]	; (48 <DRAW_SetCursorMargin+0x48>)
C:\Downloaded Files\Virtual-Com-2\Virtual-Com-2\Project\Virtual_COM_Port\RIDE\CircleOS\src/draw.c:1366
    RightMarginX = rx;
  1e:	ea23 73e3 	bic.w	r3, r3, r3, asr #31
C:\Downloaded Files\Virtual-Com-2\Virtual-Com-2\Project\Virtual_COM_Port\RIDE\CircleOS\src/draw.c:1365
    if ( rx > Screen_Width )
        rx = Screen_Width;
    else if ( lx > rx )      // else-if necessary in case lx==rx==Screen_Width
        lx = rx - 1;

    LeftMarginX = lx;
  22:	82e0      	strh	r0, [r4, #22]
C:\Downloaded Files\Virtual-Com-2\Virtual-Com-2\Project\Virtual_COM_Port\RIDE\CircleOS\src/draw.c:1366
    RightMarginX = rx;
  24:	4809      	ldr	r0, [pc, #36]	; (4c <DRAW_SetCursorMargin+0x4c>)
  26:	81c1      	strh	r1, [r0, #14]
C:\Downloaded Files\Virtual-Com-2\Virtual-Com-2\Project\Virtual_COM_Port\RIDE\CircleOS\src/draw.c:1371

    if ( ly < 0 )
        ly = 0;

    if ( hy > Screen_Height )
  28:	4909      	ldr	r1, [pc, #36]	; (50 <DRAW_SetCursorMargin+0x50>)
  2a:	f9b1 1000 	ldrsh.w	r1, [r1]
  2e:	428a      	cmp	r2, r1
  30:	dc04      	bgt.n	3c <DRAW_SetCursorMargin+0x3c>
C:\Downloaded Files\Virtual-Com-2\Virtual-Com-2\Project\Virtual_COM_Port\RIDE\CircleOS\src/draw.c:1373
        hy = Screen_Height;
    else if ( ly > hy )
  32:	4293      	cmp	r3, r2
  34:	dd03      	ble.n	3e <DRAW_SetCursorMargin+0x3e>
C:\Downloaded Files\Virtual-Com-2\Virtual-Com-2\Project\Virtual_COM_Port\RIDE\CircleOS\src/draw.c:1374
        ly = hy - 1;
  36:	1e53      	subs	r3, r2, #1
  38:	b21b      	sxth	r3, r3
  3a:	e000      	b.n	3e <DRAW_SetCursorMargin+0x3e>
C:\Downloaded Files\Virtual-Com-2\Virtual-Com-2\Project\Virtual_COM_Port\RIDE\CircleOS\src/draw.c:1371
    RightMarginX = rx;

    if ( ly < 0 )
        ly = 0;

    if ( hy > Screen_Height )
  3c:	460a      	mov	r2, r1
C:\Downloaded Files\Virtual-Com-2\Virtual-Com-2\Project\Virtual_COM_Port\RIDE\CircleOS\src/draw.c:1376
        hy = Screen_Height;
    else if ( ly > hy )
        ly = hy - 1;

    HighMarginY = hy;
  3e:	8202      	strh	r2, [r0, #16]
C:\Downloaded Files\Virtual-Com-2\Virtual-Com-2\Project\Virtual_COM_Port\RIDE\CircleOS\src/draw.c:1377
    LowMarginY = ly;
  40:	8323      	strh	r3, [r4, #24]
C:\Downloaded Files\Virtual-Com-2\Virtual-Com-2\Project\Virtual_COM_Port\RIDE\CircleOS\src/draw.c:1378
}
  42:	bd10      	pop	{r4, pc}
	...

Disassembly of section .text.DRAW_GetCursorMargin:

00000000 <DRAW_GetCursorMargin>:
DRAW_GetCursorMargin():
C:\Downloaded Files\Virtual-Com-2\Virtual-Com-2\Project\Virtual_COM_Port\RIDE\CircleOS\src/draw.c:1400
*  @warning       The (0x0) point in on the low left corner.
*
**/
/******************************************************************************/
void DRAW_GetCursorMargin( coord_t* lx, coord_t* rx, coord_t* hy, coord_t* ly )
{
   0:	b510      	push	{r4, lr}
C:\Downloaded Files\Virtual-Com-2\Virtual-Com-2\Project\Virtual_COM_Port\RIDE\CircleOS\src/draw.c:1401
    if ( lx )
   2:	b110      	cbz	r0, a <DRAW_GetCursorMargin+0xa>
C:\Downloaded Files\Virtual-Com-2\Virtual-Com-2\Project\Virtual_COM_Port\RIDE\CircleOS\src/draw.c:1402
        *lx = LeftMarginX;
   4:	4c07      	ldr	r4, [pc, #28]	; (24 <DRAW_GetCursorMargin+0x24>)
   6:	8ae4      	ldrh	r4, [r4, #22]
   8:	8004      	strh	r4, [r0, #0]
C:\Downloaded Files\Virtual-Com-2\Virtual-Com-2\Project\Virtual_COM_Port\RIDE\CircleOS\src/draw.c:1404

    if ( rx )
   a:	b111      	cbz	r1, 12 <DRAW_GetCursorMargin+0x12>
C:\Downloaded Files\Virtual-Com-2\Virtual-Com-2\Project\Virtual_COM_Port\RIDE\CircleOS\src/draw.c:1405
        *rx = RightMarginX;
   c:	4806      	ldr	r0, [pc, #24]	; (28 <DRAW_GetCursorMargin+0x28>)
   e:	89c0      	ldrh	r0, [r0, #14]
  10:	8008      	strh	r0, [r1, #0]
C:\Downloaded Files\Virtual-Com-2\Virtual-Com-2\Project\Virtual_COM_Port\RIDE\CircleOS\src/draw.c:1407

    if ( hy )
  12:	b112      	cbz	r2, 1a <DRAW_GetCursorMargin+0x1a>
C:\Downloaded Files\Virtual-Com-2\Virtual-Com-2\Project\Virtual_COM_Port\RIDE\CircleOS\src/draw.c:1408
        *hy = HighMarginY;
  14:	4904      	ldr	r1, [pc, #16]	; (28 <DRAW_GetCursorMargin+0x28>)
  16:	8a09      	ldrh	r1, [r1, #16]
  18:	8011      	strh	r1, [r2, #0]
C:\Downloaded Files\Virtual-Com-2\Virtual-Com-2\Project\Virtual_COM_Port\RIDE\CircleOS\src/draw.c:1410

    if ( ly )
  1a:	b113      	cbz	r3, 22 <DRAW_GetCursorMargin+0x22>
C:\Downloaded Files\Virtual-Com-2\Virtual-Com-2\Project\Virtual_COM_Port\RIDE\CircleOS\src/draw.c:1411
        *ly = LowMarginY;
  1c:	4a01      	ldr	r2, [pc, #4]	; (24 <DRAW_GetCursorMargin+0x24>)
  1e:	8b12      	ldrh	r2, [r2, #24]
  20:	801a      	strh	r2, [r3, #0]
  22:	bd10      	pop	{r4, pc}
	...

Disassembly of section .text.DRAW_Circle:

00000000 <DRAW_Circle>:
DRAW_Circle():
C:\Downloaded Files\Virtual-Com-2\Virtual-Com-2\Project\Virtual_COM_Port\RIDE\CircleOS\src/draw.c:1433
* @param[in]     :   Fill        Defines if the circle is filled
* @param[in]     :   Circle      Defines if the circle is drawn
* @return        :   None
*******************************************************************************/
void DRAW_Circle(coord_t CENTER_x, coord_t CENTER_y, coord_t RADIUS_r, color_t Color, color_t Fill_Color, bool Fill, bool Circle)
    {
   0:	e92d 4ff0 	stmdb	sp!, {r4, r5, r6, r7, r8, r9, sl, fp, lr}
   4:	b08f      	sub	sp, #60	; 0x3c
   6:	461e      	mov	r6, r3
   8:	f89d 3068 	ldrb.w	r3, [sp, #104]	; 0x68
   c:	4614      	mov	r4, r2
   e:	930d      	str	r3, [sp, #52]	; 0x34
C:\Downloaded Files\Virtual-Com-2\Virtual-Com-2\Project\Virtual_COM_Port\RIDE\CircleOS\src/draw.c:1436
    int ERROR = 1 - RADIUS_r;
    int ddF_x = 0;
    int ddF_y = -2 * RADIUS_r;
  10:	0063      	lsls	r3, r4, #1
  12:	425b      	negs	r3, r3
  14:	930b      	str	r3, [sp, #44]	; 0x2c
C:\Downloaded Files\Virtual-Com-2\Virtual-Com-2\Project\Virtual_COM_Port\RIDE\CircleOS\src/draw.c:1444
  
    /* Check the x parameters*/
    if ( CENTER_x - RADIUS_r < 0 )
        CENTER_x = RADIUS_r;

    if ( CENTER_x + RADIUS_r > Screen_Width - 1 )
  16:	4ba0      	ldr	r3, [pc, #640]	; (298 <DRAW_Circle+0x298>)
C:\Downloaded Files\Virtual-Com-2\Virtual-Com-2\Project\Virtual_COM_Port\RIDE\CircleOS\src/draw.c:1433
* @param[in]     :   Fill        Defines if the circle is filled
* @param[in]     :   Circle      Defines if the circle is drawn
* @return        :   None
*******************************************************************************/
void DRAW_Circle(coord_t CENTER_x, coord_t CENTER_y, coord_t RADIUS_r, color_t Color, color_t Fill_Color, bool Fill, bool Circle)
    {
  18:	f89d 2064 	ldrb.w	r2, [sp, #100]	; 0x64
C:\Downloaded Files\Virtual-Com-2\Virtual-Com-2\Project\Virtual_COM_Port\RIDE\CircleOS\src/draw.c:1441
    int ddF_y = -2 * RADIUS_r;
    int x = 0;
    int y = RADIUS_r;
  
    /* Check the x parameters*/
    if ( CENTER_x - RADIUS_r < 0 )
  1c:	1b07      	subs	r7, r0, r4
C:\Downloaded Files\Virtual-Com-2\Virtual-Com-2\Project\Virtual_COM_Port\RIDE\CircleOS\src/draw.c:1444
        CENTER_x = RADIUS_r;

    if ( CENTER_x + RADIUS_r > Screen_Width - 1 )
  1e:	881b      	ldrh	r3, [r3, #0]
C:\Downloaded Files\Virtual-Com-2\Virtual-Com-2\Project\Virtual_COM_Port\RIDE\CircleOS\src/draw.c:1442
    int x = 0;
    int y = RADIUS_r;
  
    /* Check the x parameters*/
    if ( CENTER_x - RADIUS_r < 0 )
        CENTER_x = RADIUS_r;
  20:	ea30 0727 	bics.w	r7, r0, r7, asr #32
  24:	bf28      	it	cs
  26:	4627      	movcs	r7, r4
C:\Downloaded Files\Virtual-Com-2\Virtual-Com-2\Project\Virtual_COM_Port\RIDE\CircleOS\src/draw.c:1433
* @param[in]     :   Fill        Defines if the circle is filled
* @param[in]     :   Circle      Defines if the circle is drawn
* @return        :   None
*******************************************************************************/
void DRAW_Circle(coord_t CENTER_x, coord_t CENTER_y, coord_t RADIUS_r, color_t Color, color_t Fill_Color, bool Fill, bool Circle)
    {
  28:	920c      	str	r2, [sp, #48]	; 0x30
C:\Downloaded Files\Virtual-Com-2\Virtual-Com-2\Project\Virtual_COM_Port\RIDE\CircleOS\src/draw.c:1434
    int ERROR = 1 - RADIUS_r;
  2a:	f1c4 0201 	rsb	r2, r4, #1
C:\Downloaded Files\Virtual-Com-2\Virtual-Com-2\Project\Virtual_COM_Port\RIDE\CircleOS\src/draw.c:1433
* @param[in]     :   Fill        Defines if the circle is filled
* @param[in]     :   Circle      Defines if the circle is drawn
* @return        :   None
*******************************************************************************/
void DRAW_Circle(coord_t CENTER_x, coord_t CENTER_y, coord_t RADIUS_r, color_t Color, color_t Fill_Color, bool Fill, bool Circle)
    {
  2e:	460d      	mov	r5, r1
C:\Downloaded Files\Virtual-Com-2\Virtual-Com-2\Project\Virtual_COM_Port\RIDE\CircleOS\src/draw.c:1434
    int ERROR = 1 - RADIUS_r;
  30:	9207      	str	r2, [sp, #28]
C:\Downloaded Files\Virtual-Com-2\Virtual-Com-2\Project\Virtual_COM_Port\RIDE\CircleOS\src/draw.c:1444
  
    /* Check the x parameters*/
    if ( CENTER_x - RADIUS_r < 0 )
        CENTER_x = RADIUS_r;

    if ( CENTER_x + RADIUS_r > Screen_Width - 1 )
  32:	b219      	sxth	r1, r3
  34:	193a      	adds	r2, r7, r4
  36:	4291      	cmp	r1, r2
C:\Downloaded Files\Virtual-Com-2\Virtual-Com-2\Project\Virtual_COM_Port\RIDE\CircleOS\src/draw.c:1433
* @param[in]     :   Fill        Defines if the circle is filled
* @param[in]     :   Circle      Defines if the circle is drawn
* @return        :   None
*******************************************************************************/
void DRAW_Circle(coord_t CENTER_x, coord_t CENTER_y, coord_t RADIUS_r, color_t Color, color_t Fill_Color, bool Fill, bool Circle)
    {
  38:	f8bd 8060 	ldrh.w	r8, [sp, #96]	; 0x60
C:\Downloaded Files\Virtual-Com-2\Virtual-Com-2\Project\Virtual_COM_Port\RIDE\CircleOS\src/draw.c:1434
    int ERROR = 1 - RADIUS_r;
  3c:	9408      	str	r4, [sp, #32]
C:\Downloaded Files\Virtual-Com-2\Virtual-Com-2\Project\Virtual_COM_Port\RIDE\CircleOS\src/draw.c:1444
  
    /* Check the x parameters*/
    if ( CENTER_x - RADIUS_r < 0 )
        CENTER_x = RADIUS_r;

    if ( CENTER_x + RADIUS_r > Screen_Width - 1 )
  3e:	dc02      	bgt.n	46 <DRAW_Circle+0x46>
C:\Downloaded Files\Virtual-Com-2\Virtual-Com-2\Project\Virtual_COM_Port\RIDE\CircleOS\src/draw.c:1445
        CENTER_x = Screen_Width - RADIUS_r - 1;
  40:	1e5f      	subs	r7, r3, #1
  42:	1b3f      	subs	r7, r7, r4
  44:	b23f      	sxth	r7, r7
C:\Downloaded Files\Virtual-Com-2\Virtual-Com-2\Project\Virtual_COM_Port\RIDE\CircleOS\src/draw.c:1448

    /* Check the y parameters*/
    if ( CENTER_y - RADIUS_r < 0 )
  46:	1b2b      	subs	r3, r5, r4
C:\Downloaded Files\Virtual-Com-2\Virtual-Com-2\Project\Virtual_COM_Port\RIDE\CircleOS\src/draw.c:1449
        CENTER_y = RADIUS_r;
  48:	ea35 0523 	bics.w	r5, r5, r3, asr #32
  4c:	bf28      	it	cs
  4e:	4625      	movcs	r5, r4
C:\Downloaded Files\Virtual-Com-2\Virtual-Com-2\Project\Virtual_COM_Port\RIDE\CircleOS\src/draw.c:1451

    if ( CENTER_y + RADIUS_r > Screen_Height - 1 )
  50:	4b92      	ldr	r3, [pc, #584]	; (29c <DRAW_Circle+0x29c>)
  52:	192a      	adds	r2, r5, r4
  54:	881b      	ldrh	r3, [r3, #0]
  56:	b219      	sxth	r1, r3
  58:	4291      	cmp	r1, r2
  5a:	dc02      	bgt.n	62 <DRAW_Circle+0x62>
C:\Downloaded Files\Virtual-Com-2\Virtual-Com-2\Project\Virtual_COM_Port\RIDE\CircleOS\src/draw.c:1452
        CENTER_y = Screen_Height - RADIUS_r - 1;
  5c:	1e5d      	subs	r5, r3, #1
  5e:	1b2d      	subs	r5, r5, r4
  60:	b22d      	sxth	r5, r5
C:\Downloaded Files\Virtual-Com-2\Virtual-Com-2\Project\Virtual_COM_Port\RIDE\CircleOS\src/draw.c:1454
    
    if (Fill)
  62:	9b0c      	ldr	r3, [sp, #48]	; 0x30
  64:	b183      	cbz	r3, 88 <DRAW_Circle+0x88>
C:\Downloaded Files\Virtual-Com-2\Virtual-Com-2\Project\Virtual_COM_Port\RIDE\CircleOS\src/draw.c:1456
        {
        if (Circle)
  66:	9a0d      	ldr	r2, [sp, #52]	; 0x34
  68:	2a00      	cmp	r2, #0
  6a:	f000 80fa 	beq.w	262 <DRAW_Circle+0x262>
C:\Downloaded Files\Virtual-Com-2\Virtual-Com-2\Project\Virtual_COM_Port\RIDE\CircleOS\src/draw.c:1459
            {
            Fill = 0;
            DRAW_Circle(CENTER_x, CENTER_y, RADIUS_r,Color,Fill_Color, 1, 0 );
  6e:	2301      	movs	r3, #1
  70:	9301      	str	r3, [sp, #4]
  72:	3b01      	subs	r3, #1
  74:	9302      	str	r3, [sp, #8]
  76:	4638      	mov	r0, r7
  78:	4629      	mov	r1, r5
  7a:	4622      	mov	r2, r4
  7c:	4633      	mov	r3, r6
  7e:	f8cd 8000 	str.w	r8, [sp]
  82:	f7ff fffe 	bl	0 <DRAW_Circle>
  86:	e001      	b.n	8c <DRAW_Circle+0x8c>
C:\Downloaded Files\Virtual-Com-2\Virtual-Com-2\Project\Virtual_COM_Port\RIDE\CircleOS\src/draw.c:1469
        {  
        DRAW_Line(CENTER_x + RADIUS_r, CENTER_y,CENTER_x - RADIUS_r,CENTER_y, Fill_Color );
        DRAW_Line(CENTER_x , CENTER_y - RADIUS_r,CENTER_x,CENTER_y+ RADIUS_r,Fill_Color);
        }
    
    if (Circle)
  88:	9b0d      	ldr	r3, [sp, #52]	; 0x34
  8a:	b313      	cbz	r3, d2 <DRAW_Circle+0xd2>
C:\Downloaded Files\Virtual-Com-2\Virtual-Com-2\Project\Virtual_COM_Port\RIDE\CircleOS\src/draw.c:1471
        {
        LCD_DrawPixel(CENTER_x, CENTER_y + RADIUS_r,Color);
  8c:	b2a4      	uxth	r4, r4
  8e:	fa1f f985 	uxth.w	r9, r5
  92:	eb09 0104 	add.w	r1, r9, r4
  96:	4638      	mov	r0, r7
  98:	b209      	sxth	r1, r1
  9a:	4632      	mov	r2, r6
  9c:	f7ff fffe 	bl	0 <LCD_DrawPixel>
C:\Downloaded Files\Virtual-Com-2\Virtual-Com-2\Project\Virtual_COM_Port\RIDE\CircleOS\src/draw.c:1472
        LCD_DrawPixel(CENTER_x, CENTER_y - RADIUS_r,Color);
  a0:	ebc4 0109 	rsb	r1, r4, r9
  a4:	4638      	mov	r0, r7
  a6:	b209      	sxth	r1, r1
  a8:	4632      	mov	r2, r6
C:\Downloaded Files\Virtual-Com-2\Virtual-Com-2\Project\Virtual_COM_Port\RIDE\CircleOS\src/draw.c:1473
        LCD_DrawPixel(CENTER_x + RADIUS_r, CENTER_y,Color);
  aa:	fa1f f987 	uxth.w	r9, r7
C:\Downloaded Files\Virtual-Com-2\Virtual-Com-2\Project\Virtual_COM_Port\RIDE\CircleOS\src/draw.c:1472
        }
    
    if (Circle)
        {
        LCD_DrawPixel(CENTER_x, CENTER_y + RADIUS_r,Color);
        LCD_DrawPixel(CENTER_x, CENTER_y - RADIUS_r,Color);
  ae:	f7ff fffe 	bl	0 <LCD_DrawPixel>
C:\Downloaded Files\Virtual-Com-2\Virtual-Com-2\Project\Virtual_COM_Port\RIDE\CircleOS\src/draw.c:1473
        LCD_DrawPixel(CENTER_x + RADIUS_r, CENTER_y,Color);
  b2:	eb09 0004 	add.w	r0, r9, r4
  b6:	b200      	sxth	r0, r0
  b8:	4629      	mov	r1, r5
  ba:	4632      	mov	r2, r6
C:\Downloaded Files\Virtual-Com-2\Virtual-Com-2\Project\Virtual_COM_Port\RIDE\CircleOS\src/draw.c:1474
        LCD_DrawPixel(CENTER_x - RADIUS_r, CENTER_y,Color);
  bc:	ebc4 0409 	rsb	r4, r4, r9
C:\Downloaded Files\Virtual-Com-2\Virtual-Com-2\Project\Virtual_COM_Port\RIDE\CircleOS\src/draw.c:1473
    
    if (Circle)
        {
        LCD_DrawPixel(CENTER_x, CENTER_y + RADIUS_r,Color);
        LCD_DrawPixel(CENTER_x, CENTER_y - RADIUS_r,Color);
        LCD_DrawPixel(CENTER_x + RADIUS_r, CENTER_y,Color);
  c0:	f7ff fffe 	bl	0 <LCD_DrawPixel>
C:\Downloaded Files\Virtual-Com-2\Virtual-Com-2\Project\Virtual_COM_Port\RIDE\CircleOS\src/draw.c:1474
        LCD_DrawPixel(CENTER_x - RADIUS_r, CENTER_y,Color);
  c4:	b220      	sxth	r0, r4
  c6:	4629      	mov	r1, r5
  c8:	4632      	mov	r2, r6
  ca:	f7ff fffe 	bl	0 <LCD_DrawPixel>
  ce:	2300      	movs	r3, #0
  d0:	930c      	str	r3, [sp, #48]	; 0x30
C:\Downloaded Files\Virtual-Com-2\Virtual-Com-2\Project\Virtual_COM_Port\RIDE\CircleOS\src/draw.c:1432
* @param[in]     :   Fill_Color  Background of the Circle
* @param[in]     :   Fill        Defines if the circle is filled
* @param[in]     :   Circle      Defines if the circle is drawn
* @return        :   None
*******************************************************************************/
void DRAW_Circle(coord_t CENTER_x, coord_t CENTER_y, coord_t RADIUS_r, color_t Color, color_t Fill_Color, bool Fill, bool Circle)
  d2:	b2bf      	uxth	r7, r7
  d4:	1c7b      	adds	r3, r7, #1
  d6:	b29b      	uxth	r3, r3
  d8:	b2ad      	uxth	r5, r5
  da:	9309      	str	r3, [sp, #36]	; 0x24
  dc:	1e7b      	subs	r3, r7, #1
  de:	b29b      	uxth	r3, r3
  e0:	f105 0a01 	add.w	sl, r5, #1
  e4:	f105 3bff 	add.w	fp, r5, #4294967295
  e8:	f04f 0c00 	mov.w	ip, #0
  ec:	930a      	str	r3, [sp, #40]	; 0x28
  ee:	fa1f fa8a 	uxth.w	sl, sl
  f2:	fa1f fb8b 	uxth.w	fp, fp
  f6:	46e1      	mov	r9, ip
  f8:	e0ae      	b.n	258 <DRAW_Circle+0x258>
C:\Downloaded Files\Virtual-Com-2\Virtual-Com-2\Project\Virtual_COM_Port\RIDE\CircleOS\src/draw.c:1479
        LCD_DrawPixel(CENTER_x - RADIUS_r, CENTER_y,Color);
        }
    
    while(x < y) 
        {
        if (ERROR >= 0) 
  fa:	9a07      	ldr	r2, [sp, #28]
  fc:	2a00      	cmp	r2, #0
  fe:	db08      	blt.n	112 <DRAW_Circle+0x112>
C:\Downloaded Files\Virtual-Com-2\Virtual-Com-2\Project\Virtual_COM_Port\RIDE\CircleOS\src/draw.c:1481
            {
            y--;
 100:	9b08      	ldr	r3, [sp, #32]
C:\Downloaded Files\Virtual-Com-2\Virtual-Com-2\Project\Virtual_COM_Port\RIDE\CircleOS\src/draw.c:1482
            ddF_y += 2;
 102:	9a0b      	ldr	r2, [sp, #44]	; 0x2c
C:\Downloaded Files\Virtual-Com-2\Virtual-Com-2\Project\Virtual_COM_Port\RIDE\CircleOS\src/draw.c:1481
    
    while(x < y) 
        {
        if (ERROR >= 0) 
            {
            y--;
 104:	3b01      	subs	r3, #1
 106:	9308      	str	r3, [sp, #32]
C:\Downloaded Files\Virtual-Com-2\Virtual-Com-2\Project\Virtual_COM_Port\RIDE\CircleOS\src/draw.c:1483
            ddF_y += 2;
            ERROR += ddF_y;
 108:	9b07      	ldr	r3, [sp, #28]
C:\Downloaded Files\Virtual-Com-2\Virtual-Com-2\Project\Virtual_COM_Port\RIDE\CircleOS\src/draw.c:1482
    while(x < y) 
        {
        if (ERROR >= 0) 
            {
            y--;
            ddF_y += 2;
 10a:	3202      	adds	r2, #2
C:\Downloaded Files\Virtual-Com-2\Virtual-Com-2\Project\Virtual_COM_Port\RIDE\CircleOS\src/draw.c:1483
            ERROR += ddF_y;
 10c:	189b      	adds	r3, r3, r2
C:\Downloaded Files\Virtual-Com-2\Virtual-Com-2\Project\Virtual_COM_Port\RIDE\CircleOS\src/draw.c:1482
    while(x < y) 
        {
        if (ERROR >= 0) 
            {
            y--;
            ddF_y += 2;
 10e:	920b      	str	r2, [sp, #44]	; 0x2c
C:\Downloaded Files\Virtual-Com-2\Virtual-Com-2\Project\Virtual_COM_Port\RIDE\CircleOS\src/draw.c:1483
            ERROR += ddF_y;
 110:	9307      	str	r3, [sp, #28]
C:\Downloaded Files\Virtual-Com-2\Virtual-Com-2\Project\Virtual_COM_Port\RIDE\CircleOS\src/draw.c:1432
* @param[in]     :   Fill_Color  Background of the Circle
* @param[in]     :   Fill        Defines if the circle is filled
* @param[in]     :   Circle      Defines if the circle is drawn
* @return        :   None
*******************************************************************************/
void DRAW_Circle(coord_t CENTER_x, coord_t CENTER_y, coord_t RADIUS_r, color_t Color, color_t Fill_Color, bool Fill, bool Circle)
 112:	9a07      	ldr	r2, [sp, #28]
C:\Downloaded Files\Virtual-Com-2\Virtual-Com-2\Project\Virtual_COM_Port\RIDE\CircleOS\src/draw.c:1485
            {
            y--;
            ddF_y += 2;
            ERROR += ddF_y;
            }
        x++;
 114:	f109 0901 	add.w	r9, r9, #1
C:\Downloaded Files\Virtual-Com-2\Virtual-Com-2\Project\Virtual_COM_Port\RIDE\CircleOS\src/draw.c:1432
* @param[in]     :   Fill_Color  Background of the Circle
* @param[in]     :   Fill        Defines if the circle is filled
* @param[in]     :   Circle      Defines if the circle is drawn
* @return        :   None
*******************************************************************************/
void DRAW_Circle(coord_t CENTER_x, coord_t CENTER_y, coord_t RADIUS_r, color_t Color, color_t Fill_Color, bool Fill, bool Circle)
 118:	eb02 0349 	add.w	r3, r2, r9, lsl #1
C:\Downloaded Files\Virtual-Com-2\Virtual-Com-2\Project\Virtual_COM_Port\RIDE\CircleOS\src/draw.c:1487
            ddF_y += 2;
            ERROR += ddF_y;
            }
        x++;
        ddF_x += 2;
        ERROR += ddF_x + 1; 
 11c:	3301      	adds	r3, #1
 11e:	9307      	str	r3, [sp, #28]
C:\Downloaded Files\Virtual-Com-2\Virtual-Com-2\Project\Virtual_COM_Port\RIDE\CircleOS\src/draw.c:1488
        if (Fill)
 120:	9b0c      	ldr	r3, [sp, #48]	; 0x30
 122:	2b00      	cmp	r3, #0
 124:	d038      	beq.n	198 <DRAW_Circle+0x198>
C:\Downloaded Files\Virtual-Com-2\Virtual-Com-2\Project\Virtual_COM_Port\RIDE\CircleOS\src/draw.c:1490
            {
            DRAW_Line(CENTER_x + x, CENTER_y + y, CENTER_x + x, CENTER_y - y, Fill_Color );
 126:	9a08      	ldr	r2, [sp, #32]
 128:	f8cd 8000 	str.w	r8, [sp]
 12c:	b294      	uxth	r4, r2
 12e:	9a09      	ldr	r2, [sp, #36]	; 0x24
 130:	eb04 0c05 	add.w	ip, r4, r5
 134:	fa0f fc8c 	sxth.w	ip, ip
 138:	b210      	sxth	r0, r2
 13a:	1b2b      	subs	r3, r5, r4
 13c:	b21b      	sxth	r3, r3
 13e:	4661      	mov	r1, ip
 140:	4602      	mov	r2, r0
 142:	9306      	str	r3, [sp, #24]
 144:	f8cd c010 	str.w	ip, [sp, #16]
 148:	f7ff fffe 	bl	0 <DRAW_Circle>
C:\Downloaded Files\Virtual-Com-2\Virtual-Com-2\Project\Virtual_COM_Port\RIDE\CircleOS\src/draw.c:1491
            DRAW_Line(CENTER_x - x, CENTER_y + y, CENTER_x - x, CENTER_y - y, Fill_Color );
 14c:	9b0a      	ldr	r3, [sp, #40]	; 0x28
 14e:	f8dd c010 	ldr.w	ip, [sp, #16]
 152:	b218      	sxth	r0, r3
 154:	4661      	mov	r1, ip
 156:	4602      	mov	r2, r0
 158:	9b06      	ldr	r3, [sp, #24]
 15a:	f8cd 8000 	str.w	r8, [sp]
 15e:	f7ff fffe 	bl	0 <DRAW_Circle>
C:\Downloaded Files\Virtual-Com-2\Virtual-Com-2\Project\Virtual_COM_Port\RIDE\CircleOS\src/draw.c:1492
            DRAW_Line(CENTER_x + y, CENTER_y + x, CENTER_x + y, CENTER_y - x, Fill_Color );
 162:	19e0      	adds	r0, r4, r7
 164:	fa0f f28b 	sxth.w	r2, fp
 168:	fa0f fc8a 	sxth.w	ip, sl
 16c:	b200      	sxth	r0, r0
 16e:	9206      	str	r2, [sp, #24]
 170:	4661      	mov	r1, ip
 172:	4602      	mov	r2, r0
 174:	9b06      	ldr	r3, [sp, #24]
 176:	f8cd c010 	str.w	ip, [sp, #16]
 17a:	f8cd 8000 	str.w	r8, [sp]
C:\Downloaded Files\Virtual-Com-2\Virtual-Com-2\Project\Virtual_COM_Port\RIDE\CircleOS\src/draw.c:1493
            DRAW_Line(CENTER_x - y, CENTER_y + x, CENTER_x - y, CENTER_y - x, Fill_Color );
 17e:	1b3c      	subs	r4, r7, r4
C:\Downloaded Files\Virtual-Com-2\Virtual-Com-2\Project\Virtual_COM_Port\RIDE\CircleOS\src/draw.c:1492
        ERROR += ddF_x + 1; 
        if (Fill)
            {
            DRAW_Line(CENTER_x + x, CENTER_y + y, CENTER_x + x, CENTER_y - y, Fill_Color );
            DRAW_Line(CENTER_x - x, CENTER_y + y, CENTER_x - x, CENTER_y - y, Fill_Color );
            DRAW_Line(CENTER_x + y, CENTER_y + x, CENTER_x + y, CENTER_y - x, Fill_Color );
 180:	f7ff fffe 	bl	0 <DRAW_Circle>
C:\Downloaded Files\Virtual-Com-2\Virtual-Com-2\Project\Virtual_COM_Port\RIDE\CircleOS\src/draw.c:1493
            DRAW_Line(CENTER_x - y, CENTER_y + x, CENTER_x - y, CENTER_y - x, Fill_Color );
 184:	f8dd c010 	ldr.w	ip, [sp, #16]
 188:	b220      	sxth	r0, r4
 18a:	4661      	mov	r1, ip
 18c:	4602      	mov	r2, r0
 18e:	9b06      	ldr	r3, [sp, #24]
 190:	f8cd 8000 	str.w	r8, [sp]
 194:	f7ff fffe 	bl	0 <DRAW_Circle>
C:\Downloaded Files\Virtual-Com-2\Virtual-Com-2\Project\Virtual_COM_Port\RIDE\CircleOS\src/draw.c:1496
            }
        
        if (Circle)
 198:	9b0d      	ldr	r3, [sp, #52]	; 0x34
 19a:	2b00      	cmp	r3, #0
 19c:	d04c      	beq.n	238 <DRAW_Circle+0x238>
C:\Downloaded Files\Virtual-Com-2\Virtual-Com-2\Project\Virtual_COM_Port\RIDE\CircleOS\src/draw.c:1498
            {
            LCD_DrawPixel(CENTER_x + x, CENTER_y + y,Color);
 19e:	9a08      	ldr	r2, [sp, #32]
 1a0:	b292      	uxth	r2, r2
 1a2:	9206      	str	r2, [sp, #24]
 1a4:	1954      	adds	r4, r2, r5
 1a6:	9a09      	ldr	r2, [sp, #36]	; 0x24
 1a8:	b224      	sxth	r4, r4
 1aa:	b213      	sxth	r3, r2
 1ac:	4618      	mov	r0, r3
 1ae:	4621      	mov	r1, r4
 1b0:	4632      	mov	r2, r6
 1b2:	9305      	str	r3, [sp, #20]
 1b4:	f7ff fffe 	bl	0 <LCD_DrawPixel>
C:\Downloaded Files\Virtual-Com-2\Virtual-Com-2\Project\Virtual_COM_Port\RIDE\CircleOS\src/draw.c:1499
            LCD_DrawPixel(CENTER_x - x, CENTER_y + y,Color);
 1b8:	9a0a      	ldr	r2, [sp, #40]	; 0x28
 1ba:	4621      	mov	r1, r4
 1bc:	fa0f fc82 	sxth.w	ip, r2
 1c0:	4660      	mov	r0, ip
 1c2:	4632      	mov	r2, r6
 1c4:	f8cd c010 	str.w	ip, [sp, #16]
 1c8:	f7ff fffe 	bl	0 <LCD_DrawPixel>
C:\Downloaded Files\Virtual-Com-2\Virtual-Com-2\Project\Virtual_COM_Port\RIDE\CircleOS\src/draw.c:1500
            LCD_DrawPixel(CENTER_x + x, CENTER_y - y,Color);
 1cc:	9a06      	ldr	r2, [sp, #24]
 1ce:	9b05      	ldr	r3, [sp, #20]
 1d0:	1aac      	subs	r4, r5, r2
 1d2:	b224      	sxth	r4, r4
 1d4:	4618      	mov	r0, r3
 1d6:	4621      	mov	r1, r4
 1d8:	4632      	mov	r2, r6
 1da:	f7ff fffe 	bl	0 <LCD_DrawPixel>
C:\Downloaded Files\Virtual-Com-2\Virtual-Com-2\Project\Virtual_COM_Port\RIDE\CircleOS\src/draw.c:1501
            LCD_DrawPixel(CENTER_x - x, CENTER_y - y,Color);
 1de:	f8dd c010 	ldr.w	ip, [sp, #16]
 1e2:	4621      	mov	r1, r4
 1e4:	4660      	mov	r0, ip
 1e6:	4632      	mov	r2, r6
 1e8:	f7ff fffe 	bl	0 <LCD_DrawPixel>
C:\Downloaded Files\Virtual-Com-2\Virtual-Com-2\Project\Virtual_COM_Port\RIDE\CircleOS\src/draw.c:1502
            LCD_DrawPixel(CENTER_x + y, CENTER_y + x,Color);
 1ec:	9b06      	ldr	r3, [sp, #24]
 1ee:	fa0f f48a 	sxth.w	r4, sl
 1f2:	eb03 0c07 	add.w	ip, r3, r7
 1f6:	fa0f fc8c 	sxth.w	ip, ip
 1fa:	4660      	mov	r0, ip
 1fc:	4621      	mov	r1, r4
 1fe:	4632      	mov	r2, r6
 200:	f8cd c010 	str.w	ip, [sp, #16]
 204:	f7ff fffe 	bl	0 <LCD_DrawPixel>
C:\Downloaded Files\Virtual-Com-2\Virtual-Com-2\Project\Virtual_COM_Port\RIDE\CircleOS\src/draw.c:1503
            LCD_DrawPixel(CENTER_x - y, CENTER_y + x,Color);
 208:	9a06      	ldr	r2, [sp, #24]
 20a:	4621      	mov	r1, r4
 20c:	1abb      	subs	r3, r7, r2
 20e:	b21b      	sxth	r3, r3
 210:	4618      	mov	r0, r3
 212:	4632      	mov	r2, r6
 214:	9305      	str	r3, [sp, #20]
 216:	f7ff fffe 	bl	0 <LCD_DrawPixel>
C:\Downloaded Files\Virtual-Com-2\Virtual-Com-2\Project\Virtual_COM_Port\RIDE\CircleOS\src/draw.c:1504
            LCD_DrawPixel(CENTER_x + y, CENTER_y - x,Color);
 21a:	f8dd c010 	ldr.w	ip, [sp, #16]
 21e:	fa0f f48b 	sxth.w	r4, fp
 222:	4660      	mov	r0, ip
 224:	4621      	mov	r1, r4
 226:	4632      	mov	r2, r6
 228:	f7ff fffe 	bl	0 <LCD_DrawPixel>
C:\Downloaded Files\Virtual-Com-2\Virtual-Com-2\Project\Virtual_COM_Port\RIDE\CircleOS\src/draw.c:1505
            LCD_DrawPixel(CENTER_x - y, CENTER_y - x,Color);
 22c:	9b05      	ldr	r3, [sp, #20]
 22e:	4621      	mov	r1, r4
 230:	4618      	mov	r0, r3
 232:	4632      	mov	r2, r6
 234:	f7ff fffe 	bl	0 <LCD_DrawPixel>
 238:	9a09      	ldr	r2, [sp, #36]	; 0x24
 23a:	f10a 0a01 	add.w	sl, sl, #1
 23e:	1c53      	adds	r3, r2, #1
 240:	9a0a      	ldr	r2, [sp, #40]	; 0x28
 242:	b29b      	uxth	r3, r3
 244:	9309      	str	r3, [sp, #36]	; 0x24
 246:	1e53      	subs	r3, r2, #1
 248:	b29b      	uxth	r3, r3
 24a:	f10b 3bff 	add.w	fp, fp, #4294967295
 24e:	930a      	str	r3, [sp, #40]	; 0x28
 250:	fa1f fa8a 	uxth.w	sl, sl
 254:	fa1f fb8b 	uxth.w	fp, fp
C:\Downloaded Files\Virtual-Com-2\Virtual-Com-2\Project\Virtual_COM_Port\RIDE\CircleOS\src/draw.c:1477
        LCD_DrawPixel(CENTER_x, CENTER_y - RADIUS_r,Color);
        LCD_DrawPixel(CENTER_x + RADIUS_r, CENTER_y,Color);
        LCD_DrawPixel(CENTER_x - RADIUS_r, CENTER_y,Color);
        }
    
    while(x < y) 
 258:	9b08      	ldr	r3, [sp, #32]
 25a:	4599      	cmp	r9, r3
 25c:	f6ff af4d 	blt.w	fa <DRAW_Circle+0xfa>
 260:	e017      	b.n	292 <DRAW_Circle+0x292>
C:\Downloaded Files\Virtual-Com-2\Virtual-Com-2\Project\Virtual_COM_Port\RIDE\CircleOS\src/draw.c:1465
            }
        }
    
    if (Fill)
        {  
        DRAW_Line(CENTER_x + RADIUS_r, CENTER_y,CENTER_x - RADIUS_r,CENTER_y, Fill_Color );
 262:	b2a4      	uxth	r4, r4
 264:	b2ba      	uxth	r2, r7
 266:	1910      	adds	r0, r2, r4
 268:	1b12      	subs	r2, r2, r4
 26a:	4629      	mov	r1, r5
 26c:	462b      	mov	r3, r5
 26e:	b200      	sxth	r0, r0
 270:	b212      	sxth	r2, r2
 272:	f8cd 8000 	str.w	r8, [sp]
 276:	f7ff fffe 	bl	0 <DRAW_Circle>
C:\Downloaded Files\Virtual-Com-2\Virtual-Com-2\Project\Virtual_COM_Port\RIDE\CircleOS\src/draw.c:1466
        DRAW_Line(CENTER_x , CENTER_y - RADIUS_r,CENTER_x,CENTER_y+ RADIUS_r,Fill_Color);
 27a:	b2ab      	uxth	r3, r5
 27c:	1b19      	subs	r1, r3, r4
 27e:	191c      	adds	r4, r3, r4
 280:	4638      	mov	r0, r7
 282:	b209      	sxth	r1, r1
 284:	463a      	mov	r2, r7
 286:	b223      	sxth	r3, r4
 288:	f8cd 8000 	str.w	r8, [sp]
 28c:	f7ff fffe 	bl	0 <DRAW_Circle>
 290:	e71f      	b.n	d2 <DRAW_Circle+0xd2>
C:\Downloaded Files\Virtual-Com-2\Virtual-Com-2\Project\Virtual_COM_Port\RIDE\CircleOS\src/draw.c:1508
            LCD_DrawPixel(CENTER_x - y, CENTER_y + x,Color);
            LCD_DrawPixel(CENTER_x + y, CENTER_y - x,Color);
            LCD_DrawPixel(CENTER_x - y, CENTER_y - x,Color);
            }
        } 
    }
 292:	b00f      	add	sp, #60	; 0x3c
 294:	e8bd 8ff0 	ldmia.w	sp!, {r4, r5, r6, r7, r8, r9, sl, fp, pc}
	...

Disassembly of section .text.DRAW_Ellipse:

00000000 <DRAW_Ellipse>:
DRAW_Ellipse():
C:\Downloaded Files\Virtual-Com-2\Virtual-Com-2\Project\Virtual_COM_Port\RIDE\CircleOS\src/draw.c:1530
* @param[in]     :   Fill       Defines if the Ellipse is filled
* @param[in]     :   Ellipse    Defines if the Ellipse is drawn
* @return        :   None
*******************************************************************************/
void DRAW_Ellipse( coord_t CENTER_x, coord_t CENTER_y, coord_t RADIUS_a, coord_t RADIUS_b, color_t Color, color_t Fill_Color, bool Fill, bool Ellipse)
{
   0:	e92d 4ff0 	stmdb	sp!, {r4, r5, r6, r7, r8, r9, sl, fp, lr}
   4:	b095      	sub	sp, #84	; 0x54
   6:	461c      	mov	r4, r3
   8:	f89d 3080 	ldrb.w	r3, [sp, #128]	; 0x80
   c:	468a      	mov	sl, r1
   e:	930d      	str	r3, [sp, #52]	; 0x34
  10:	f8bd 107c 	ldrh.w	r1, [sp, #124]	; 0x7c
C:\Downloaded Files\Virtual-Com-2\Virtual-Com-2\Project\Virtual_COM_Port\RIDE\CircleOS\src/draw.c:1536
    int X, Y;
    int XChange, YChange;
    int EllipseError;
    int TwoASquare, TwoBSquare;
    int StoppingX, StoppingY;
    TwoASquare = 2*RADIUS_a*RADIUS_a;
  14:	fb02 f302 	mul.w	r3, r2, r2
C:\Downloaded Files\Virtual-Com-2\Virtual-Com-2\Project\Virtual_COM_Port\RIDE\CircleOS\src/draw.c:1530
* @param[in]     :   Fill       Defines if the Ellipse is filled
* @param[in]     :   Ellipse    Defines if the Ellipse is drawn
* @return        :   None
*******************************************************************************/
void DRAW_Ellipse( coord_t CENTER_x, coord_t CENTER_y, coord_t RADIUS_a, coord_t RADIUS_b, color_t Color, color_t Fill_Color, bool Fill, bool Ellipse)
{
  18:	9108      	str	r1, [sp, #32]
  1a:	f89d 1084 	ldrb.w	r1, [sp, #132]	; 0x84
C:\Downloaded Files\Virtual-Com-2\Virtual-Com-2\Project\Virtual_COM_Port\RIDE\CircleOS\src/draw.c:1536
    int X, Y;
    int XChange, YChange;
    int EllipseError;
    int TwoASquare, TwoBSquare;
    int StoppingX, StoppingY;
    TwoASquare = 2*RADIUS_a*RADIUS_a;
  1e:	930e      	str	r3, [sp, #56]	; 0x38
C:\Downloaded Files\Virtual-Com-2\Virtual-Com-2\Project\Virtual_COM_Port\RIDE\CircleOS\src/draw.c:1530
* @param[in]     :   Fill       Defines if the Ellipse is filled
* @param[in]     :   Ellipse    Defines if the Ellipse is drawn
* @return        :   None
*******************************************************************************/
void DRAW_Ellipse( coord_t CENTER_x, coord_t CENTER_y, coord_t RADIUS_a, coord_t RADIUS_b, color_t Color, color_t Fill_Color, bool Fill, bool Ellipse)
{
  20:	9110      	str	r1, [sp, #64]	; 0x40
C:\Downloaded Files\Virtual-Com-2\Virtual-Com-2\Project\Virtual_COM_Port\RIDE\CircleOS\src/draw.c:1536
    int X, Y;
    int XChange, YChange;
    int EllipseError;
    int TwoASquare, TwoBSquare;
    int StoppingX, StoppingY;
    TwoASquare = 2*RADIUS_a*RADIUS_a;
  22:	0059      	lsls	r1, r3, #1
C:\Downloaded Files\Virtual-Com-2\Virtual-Com-2\Project\Virtual_COM_Port\RIDE\CircleOS\src/draw.c:1537
    TwoBSquare = 2*RADIUS_b*RADIUS_b;
  24:	fb04 f304 	mul.w	r3, r4, r4
C:\Downloaded Files\Virtual-Com-2\Virtual-Com-2\Project\Virtual_COM_Port\RIDE\CircleOS\src/draw.c:1536
    int X, Y;
    int XChange, YChange;
    int EllipseError;
    int TwoASquare, TwoBSquare;
    int StoppingX, StoppingY;
    TwoASquare = 2*RADIUS_a*RADIUS_a;
  28:	910b      	str	r1, [sp, #44]	; 0x2c
C:\Downloaded Files\Virtual-Com-2\Virtual-Com-2\Project\Virtual_COM_Port\RIDE\CircleOS\src/draw.c:1537
    TwoBSquare = 2*RADIUS_b*RADIUS_b;
  2a:	930f      	str	r3, [sp, #60]	; 0x3c
  2c:	0059      	lsls	r1, r3, #1
  2e:	910c      	str	r1, [sp, #48]	; 0x30
C:\Downloaded Files\Virtual-Com-2\Virtual-Com-2\Project\Virtual_COM_Port\RIDE\CircleOS\src/draw.c:1540
    X = RADIUS_a;
    Y = 0;
    XChange = RADIUS_b*RADIUS_b*(1-2*RADIUS_a);
  30:	0053      	lsls	r3, r2, #1
  32:	990f      	ldr	r1, [sp, #60]	; 0x3c
  34:	f1c3 0301 	rsb	r3, r3, #1
  38:	434b      	muls	r3, r1
  3a:	9307      	str	r3, [sp, #28]
C:\Downloaded Files\Virtual-Com-2\Virtual-Com-2\Project\Virtual_COM_Port\RIDE\CircleOS\src/draw.c:1543
    YChange = RADIUS_a*RADIUS_a;
    EllipseError = 0;
    StoppingX = TwoBSquare*RADIUS_a;
  3c:	9b0c      	ldr	r3, [sp, #48]	; 0x30
C:\Downloaded Files\Virtual-Com-2\Virtual-Com-2\Project\Virtual_COM_Port\RIDE\CircleOS\src/draw.c:1547
    StoppingY = 0;
 
    /* Check the x parameters*/
    if ( CENTER_x - RADIUS_a < 0 )
  3e:	1a86      	subs	r6, r0, r2
C:\Downloaded Files\Virtual-Com-2\Virtual-Com-2\Project\Virtual_COM_Port\RIDE\CircleOS\src/draw.c:1543
    X = RADIUS_a;
    Y = 0;
    XChange = RADIUS_b*RADIUS_b*(1-2*RADIUS_a);
    YChange = RADIUS_a*RADIUS_a;
    EllipseError = 0;
    StoppingX = TwoBSquare*RADIUS_a;
  40:	4353      	muls	r3, r2
  42:	9309      	str	r3, [sp, #36]	; 0x24
C:\Downloaded Files\Virtual-Com-2\Virtual-Com-2\Project\Virtual_COM_Port\RIDE\CircleOS\src/draw.c:1550
 
    /* Check the x parameters*/
    if ( CENTER_x - RADIUS_a < 0 )
        CENTER_x = RADIUS_a;

    if ( CENTER_x + RADIUS_a > Screen_Width - 1 )
  44:	4b93      	ldr	r3, [pc, #588]	; (294 <DRAW_Ellipse+0x294>)
C:\Downloaded Files\Virtual-Com-2\Virtual-Com-2\Project\Virtual_COM_Port\RIDE\CircleOS\src/draw.c:1548
    StoppingX = TwoBSquare*RADIUS_a;
    StoppingY = 0;
 
    /* Check the x parameters*/
    if ( CENTER_x - RADIUS_a < 0 )
        CENTER_x = RADIUS_a;
  46:	ea30 0626 	bics.w	r6, r0, r6, asr #32
  4a:	bf28      	it	cs
  4c:	4616      	movcs	r6, r2
C:\Downloaded Files\Virtual-Com-2\Virtual-Com-2\Project\Virtual_COM_Port\RIDE\CircleOS\src/draw.c:1550

    if ( CENTER_x + RADIUS_a > Screen_Width - 1 )
  4e:	881b      	ldrh	r3, [r3, #0]
  50:	18b1      	adds	r1, r6, r2
  52:	b218      	sxth	r0, r3
  54:	4288      	cmp	r0, r1
C:\Downloaded Files\Virtual-Com-2\Virtual-Com-2\Project\Virtual_COM_Port\RIDE\CircleOS\src/draw.c:1530
* @param[in]     :   Fill       Defines if the Ellipse is filled
* @param[in]     :   Ellipse    Defines if the Ellipse is drawn
* @return        :   None
*******************************************************************************/
void DRAW_Ellipse( coord_t CENTER_x, coord_t CENTER_y, coord_t RADIUS_a, coord_t RADIUS_b, color_t Color, color_t Fill_Color, bool Fill, bool Ellipse)
{
  56:	f8bd 5078 	ldrh.w	r5, [sp, #120]	; 0x78
C:\Downloaded Files\Virtual-Com-2\Virtual-Com-2\Project\Virtual_COM_Port\RIDE\CircleOS\src/draw.c:1536
    int X, Y;
    int XChange, YChange;
    int EllipseError;
    int TwoASquare, TwoBSquare;
    int StoppingX, StoppingY;
    TwoASquare = 2*RADIUS_a*RADIUS_a;
  5a:	9206      	str	r2, [sp, #24]
C:\Downloaded Files\Virtual-Com-2\Virtual-Com-2\Project\Virtual_COM_Port\RIDE\CircleOS\src/draw.c:1537
    TwoBSquare = 2*RADIUS_b*RADIUS_b;
  5c:	940a      	str	r4, [sp, #40]	; 0x28
C:\Downloaded Files\Virtual-Com-2\Virtual-Com-2\Project\Virtual_COM_Port\RIDE\CircleOS\src/draw.c:1550
 
    /* Check the x parameters*/
    if ( CENTER_x - RADIUS_a < 0 )
        CENTER_x = RADIUS_a;

    if ( CENTER_x + RADIUS_a > Screen_Width - 1 )
  5e:	dc02      	bgt.n	66 <DRAW_Ellipse+0x66>
C:\Downloaded Files\Virtual-Com-2\Virtual-Com-2\Project\Virtual_COM_Port\RIDE\CircleOS\src/draw.c:1551
        CENTER_x = Screen_Width - RADIUS_a - 1;
  60:	1e5e      	subs	r6, r3, #1
  62:	1ab6      	subs	r6, r6, r2
  64:	b236      	sxth	r6, r6
C:\Downloaded Files\Virtual-Com-2\Virtual-Com-2\Project\Virtual_COM_Port\RIDE\CircleOS\src/draw.c:1554

    /* Check the y parameters*/
    if ( CENTER_y - RADIUS_b < 0 )
  66:	ebc4 030a 	rsb	r3, r4, sl
C:\Downloaded Files\Virtual-Com-2\Virtual-Com-2\Project\Virtual_COM_Port\RIDE\CircleOS\src/draw.c:1555
        CENTER_y = RADIUS_b;
  6a:	ea3a 0a23 	bics.w	sl, sl, r3, asr #32
  6e:	bf28      	it	cs
  70:	46a2      	movcs	sl, r4
C:\Downloaded Files\Virtual-Com-2\Virtual-Com-2\Project\Virtual_COM_Port\RIDE\CircleOS\src/draw.c:1557

    if ( CENTER_y + RADIUS_b > Screen_Height - 1 )
  72:	4b89      	ldr	r3, [pc, #548]	; (298 <DRAW_Ellipse+0x298>)
  74:	eb0a 0104 	add.w	r1, sl, r4
  78:	881b      	ldrh	r3, [r3, #0]
  7a:	b218      	sxth	r0, r3
  7c:	4288      	cmp	r0, r1
  7e:	dc05      	bgt.n	8c <DRAW_Ellipse+0x8c>
C:\Downloaded Files\Virtual-Com-2\Virtual-Com-2\Project\Virtual_COM_Port\RIDE\CircleOS\src/draw.c:1558
        CENTER_y = Screen_Height - RADIUS_b - 1;
  80:	f103 3aff 	add.w	sl, r3, #4294967295
  84:	ebc4 0a0a 	rsb	sl, r4, sl
  88:	fa0f fa8a 	sxth.w	sl, sl
C:\Downloaded Files\Virtual-Com-2\Virtual-Com-2\Project\Virtual_COM_Port\RIDE\CircleOS\src/draw.c:1560
    
    if (Fill)
  8c:	990d      	ldr	r1, [sp, #52]	; 0x34
  8e:	b171      	cbz	r1, ae <DRAW_Ellipse+0xae>
C:\Downloaded Files\Virtual-Com-2\Virtual-Com-2\Project\Virtual_COM_Port\RIDE\CircleOS\src/draw.c:1562
        {
        if (Ellipse)
  90:	9b10      	ldr	r3, [sp, #64]	; 0x40
  92:	b163      	cbz	r3, ae <DRAW_Ellipse+0xae>
C:\Downloaded Files\Virtual-Com-2\Virtual-Com-2\Project\Virtual_COM_Port\RIDE\CircleOS\src/draw.c:1565
            {
            Fill=0;
            DRAW_Ellipse( CENTER_x, CENTER_y, RADIUS_a, RADIUS_b, Color, Fill_Color, 1,0);
  94:	9908      	ldr	r1, [sp, #32]
  96:	2301      	movs	r3, #1
  98:	9101      	str	r1, [sp, #4]
  9a:	9302      	str	r3, [sp, #8]
  9c:	2700      	movs	r7, #0
  9e:	4630      	mov	r0, r6
  a0:	4651      	mov	r1, sl
  a2:	4623      	mov	r3, r4
  a4:	9500      	str	r5, [sp, #0]
  a6:	9703      	str	r7, [sp, #12]
  a8:	f7ff fffe 	bl	0 <DRAW_Ellipse>
C:\Downloaded Files\Virtual-Com-2\Virtual-Com-2\Project\Virtual_COM_Port\RIDE\CircleOS\src/draw.c:1564
    
    if (Fill)
        {
        if (Ellipse)
            {
            Fill=0;
  ac:	970d      	str	r7, [sp, #52]	; 0x34
C:\Downloaded Files\Virtual-Com-2\Virtual-Com-2\Project\Virtual_COM_Port\RIDE\CircleOS\src/draw.c:1565
            DRAW_Ellipse( CENTER_x, CENTER_y, RADIUS_a, RADIUS_b, Color, Fill_Color, 1,0);
  ae:	fa1f fa8a 	uxth.w	sl, sl
C:\Downloaded Files\Virtual-Com-2\Virtual-Com-2\Project\Virtual_COM_Port\RIDE\CircleOS\src/draw.c:1564
    
    if (Fill)
        {
        if (Ellipse)
            {
            Fill=0;
  b2:	46d3      	mov	fp, sl
  b4:	2700      	movs	r7, #0
  b6:	f8cd a04c 	str.w	sl, [sp, #76]	; 0x4c
  ba:	46b8      	mov	r8, r7
  bc:	46a2      	mov	sl, r4
  be:	46b1      	mov	r9, r6
  c0:	465c      	mov	r4, fp
  c2:	e065      	b.n	190 <DRAW_Ellipse+0x190>
C:\Downloaded Files\Virtual-Com-2\Virtual-Com-2\Project\Virtual_COM_Port\RIDE\CircleOS\src/draw.c:1571
            }
        }
        
    while ( StoppingX >= StoppingY )
        {
        if (Fill)
  c4:	9a0d      	ldr	r2, [sp, #52]	; 0x34
  c6:	b1f2      	cbz	r2, 106 <DRAW_Ellipse+0x106>
C:\Downloaded Files\Virtual-Com-2\Virtual-Com-2\Project\Virtual_COM_Port\RIDE\CircleOS\src/draw.c:1573
            {
            DRAW_Line(CENTER_x+ X, CENTER_y+Y, CENTER_x-X , CENTER_y+Y, Fill_Color);
  c8:	9906      	ldr	r1, [sp, #24]
  ca:	fa1f f689 	uxth.w	r6, r9
  ce:	b28b      	uxth	r3, r1
  d0:	eb03 0c06 	add.w	ip, r3, r6
  d4:	9a08      	ldr	r2, [sp, #32]
  d6:	1af6      	subs	r6, r6, r3
  d8:	fa0f fc8c 	sxth.w	ip, ip
  dc:	b221      	sxth	r1, r4
  de:	b236      	sxth	r6, r6
  e0:	4660      	mov	r0, ip
  e2:	460b      	mov	r3, r1
  e4:	9200      	str	r2, [sp, #0]
  e6:	4632      	mov	r2, r6
  e8:	f8cd c010 	str.w	ip, [sp, #16]
  ec:	f7ff fffe 	bl	0 <DRAW_Ellipse>
C:\Downloaded Files\Virtual-Com-2\Virtual-Com-2\Project\Virtual_COM_Port\RIDE\CircleOS\src/draw.c:1574
            DRAW_Line(CENTER_x- X, CENTER_y-Y, CENTER_x+X , CENTER_y-Y,Fill_Color);
  f0:	9b08      	ldr	r3, [sp, #32]
  f2:	f8dd c010 	ldr.w	ip, [sp, #16]
  f6:	fa0f f18b 	sxth.w	r1, fp
  fa:	9300      	str	r3, [sp, #0]
  fc:	4630      	mov	r0, r6
  fe:	4662      	mov	r2, ip
 100:	460b      	mov	r3, r1
 102:	f7ff fffe 	bl	0 <DRAW_Ellipse>
C:\Downloaded Files\Virtual-Com-2\Virtual-Com-2\Project\Virtual_COM_Port\RIDE\CircleOS\src/draw.c:1577
            }
        
        if (Ellipse)
 106:	9910      	ldr	r1, [sp, #64]	; 0x40
 108:	b341      	cbz	r1, 15c <DRAW_Ellipse+0x15c>
C:\Downloaded Files\Virtual-Com-2\Virtual-Com-2\Project\Virtual_COM_Port\RIDE\CircleOS\src/draw.c:1579
            {
            LCD_DrawPixel(CENTER_x+X, CENTER_y+Y,Color); 
 10a:	9a06      	ldr	r2, [sp, #24]
 10c:	fa1f f689 	uxth.w	r6, r9
 110:	b293      	uxth	r3, r2
 112:	199a      	adds	r2, r3, r6
 114:	fa0f fc84 	sxth.w	ip, r4
 118:	b212      	sxth	r2, r2
 11a:	4610      	mov	r0, r2
 11c:	4661      	mov	r1, ip
 11e:	9211      	str	r2, [sp, #68]	; 0x44
 120:	462a      	mov	r2, r5
 122:	9305      	str	r3, [sp, #20]
 124:	f8cd c010 	str.w	ip, [sp, #16]
 128:	f7ff fffe 	bl	0 <LCD_DrawPixel>
C:\Downloaded Files\Virtual-Com-2\Virtual-Com-2\Project\Virtual_COM_Port\RIDE\CircleOS\src/draw.c:1580
            LCD_DrawPixel(CENTER_x-X, CENTER_y+Y,Color); 
 12c:	9b05      	ldr	r3, [sp, #20]
 12e:	f8dd c010 	ldr.w	ip, [sp, #16]
 132:	1af3      	subs	r3, r6, r3
 134:	b21b      	sxth	r3, r3
 136:	4618      	mov	r0, r3
 138:	4661      	mov	r1, ip
 13a:	462a      	mov	r2, r5
 13c:	9305      	str	r3, [sp, #20]
 13e:	f7ff fffe 	bl	0 <LCD_DrawPixel>
C:\Downloaded Files\Virtual-Com-2\Virtual-Com-2\Project\Virtual_COM_Port\RIDE\CircleOS\src/draw.c:1581
            LCD_DrawPixel(CENTER_x-X, CENTER_y-Y,Color); 
 142:	9b05      	ldr	r3, [sp, #20]
 144:	fa0f f68b 	sxth.w	r6, fp
 148:	4618      	mov	r0, r3
 14a:	4631      	mov	r1, r6
 14c:	462a      	mov	r2, r5
 14e:	f7ff fffe 	bl	0 <LCD_DrawPixel>
C:\Downloaded Files\Virtual-Com-2\Virtual-Com-2\Project\Virtual_COM_Port\RIDE\CircleOS\src/draw.c:1582
            LCD_DrawPixel(CENTER_x+X, CENTER_y-Y,Color); 
 152:	9811      	ldr	r0, [sp, #68]	; 0x44
 154:	4631      	mov	r1, r6
 156:	462a      	mov	r2, r5
 158:	f7ff fffe 	bl	0 <LCD_DrawPixel>
C:\Downloaded Files\Virtual-Com-2\Virtual-Com-2\Project\Virtual_COM_Port\RIDE\CircleOS\src/draw.c:1586
            }
        Y++;
        StoppingY+= TwoASquare;
        EllipseError+= YChange;
 15c:	9912      	ldr	r1, [sp, #72]	; 0x48
C:\Downloaded Files\Virtual-Com-2\Virtual-Com-2\Project\Virtual_COM_Port\RIDE\CircleOS\src/draw.c:1529
* @param[in]     :   Fill_Color Background of the Circle
* @param[in]     :   Fill       Defines if the Ellipse is filled
* @param[in]     :   Ellipse    Defines if the Ellipse is drawn
* @return        :   None
*******************************************************************************/
void DRAW_Ellipse( coord_t CENTER_x, coord_t CENTER_y, coord_t RADIUS_a, coord_t RADIUS_b, color_t Color, color_t Fill_Color, bool Fill, bool Ellipse)
 15e:	9b0b      	ldr	r3, [sp, #44]	; 0x2c
C:\Downloaded Files\Virtual-Com-2\Virtual-Com-2\Project\Virtual_COM_Port\RIDE\CircleOS\src/draw.c:1588
            }
        Y++;
        StoppingY+= TwoASquare;
        EllipseError+= YChange;
        YChange+= TwoASquare;
        if ((2*EllipseError + XChange) > 0 )
 160:	9a07      	ldr	r2, [sp, #28]
C:\Downloaded Files\Virtual-Com-2\Virtual-Com-2\Project\Virtual_COM_Port\RIDE\CircleOS\src/draw.c:1586
            LCD_DrawPixel(CENTER_x-X, CENTER_y-Y,Color); 
            LCD_DrawPixel(CENTER_x+X, CENTER_y-Y,Color); 
            }
        Y++;
        StoppingY+= TwoASquare;
        EllipseError+= YChange;
 162:	4488      	add	r8, r1
C:\Downloaded Files\Virtual-Com-2\Virtual-Com-2\Project\Virtual_COM_Port\RIDE\CircleOS\src/draw.c:1529
* @param[in]     :   Fill_Color Background of the Circle
* @param[in]     :   Fill       Defines if the Ellipse is filled
* @param[in]     :   Ellipse    Defines if the Ellipse is drawn
* @return        :   None
*******************************************************************************/
void DRAW_Ellipse( coord_t CENTER_x, coord_t CENTER_y, coord_t RADIUS_a, coord_t RADIUS_b, color_t Color, color_t Fill_Color, bool Fill, bool Ellipse)
 164:	18ff      	adds	r7, r7, r3
C:\Downloaded Files\Virtual-Com-2\Virtual-Com-2\Project\Virtual_COM_Port\RIDE\CircleOS\src/draw.c:1588
            }
        Y++;
        StoppingY+= TwoASquare;
        EllipseError+= YChange;
        YChange+= TwoASquare;
        if ((2*EllipseError + XChange) > 0 )
 166:	eb02 0348 	add.w	r3, r2, r8, lsl #1
 16a:	2b00      	cmp	r3, #0
 16c:	dd0a      	ble.n	184 <DRAW_Ellipse+0x184>
C:\Downloaded Files\Virtual-Com-2\Virtual-Com-2\Project\Virtual_COM_Port\RIDE\CircleOS\src/draw.c:1590
            {
            X--;
 16e:	9b06      	ldr	r3, [sp, #24]
C:\Downloaded Files\Virtual-Com-2\Virtual-Com-2\Project\Virtual_COM_Port\RIDE\CircleOS\src/draw.c:1591
            StoppingX -= TwoBSquare;
 170:	9909      	ldr	r1, [sp, #36]	; 0x24
C:\Downloaded Files\Virtual-Com-2\Virtual-Com-2\Project\Virtual_COM_Port\RIDE\CircleOS\src/draw.c:1590
        StoppingY+= TwoASquare;
        EllipseError+= YChange;
        YChange+= TwoASquare;
        if ((2*EllipseError + XChange) > 0 )
            {
            X--;
 172:	3b01      	subs	r3, #1
C:\Downloaded Files\Virtual-Com-2\Virtual-Com-2\Project\Virtual_COM_Port\RIDE\CircleOS\src/draw.c:1591
            StoppingX -= TwoBSquare;
 174:	9a0c      	ldr	r2, [sp, #48]	; 0x30
C:\Downloaded Files\Virtual-Com-2\Virtual-Com-2\Project\Virtual_COM_Port\RIDE\CircleOS\src/draw.c:1590
        StoppingY+= TwoASquare;
        EllipseError+= YChange;
        YChange+= TwoASquare;
        if ((2*EllipseError + XChange) > 0 )
            {
            X--;
 176:	9306      	str	r3, [sp, #24]
C:\Downloaded Files\Virtual-Com-2\Virtual-Com-2\Project\Virtual_COM_Port\RIDE\CircleOS\src/draw.c:1592
            StoppingX -= TwoBSquare;
            EllipseError += XChange;
 178:	9b07      	ldr	r3, [sp, #28]
C:\Downloaded Files\Virtual-Com-2\Virtual-Com-2\Project\Virtual_COM_Port\RIDE\CircleOS\src/draw.c:1591
        EllipseError+= YChange;
        YChange+= TwoASquare;
        if ((2*EllipseError + XChange) > 0 )
            {
            X--;
            StoppingX -= TwoBSquare;
 17a:	1a89      	subs	r1, r1, r2
C:\Downloaded Files\Virtual-Com-2\Virtual-Com-2\Project\Virtual_COM_Port\RIDE\CircleOS\src/draw.c:1592
            EllipseError += XChange;
 17c:	4498      	add	r8, r3
C:\Downloaded Files\Virtual-Com-2\Virtual-Com-2\Project\Virtual_COM_Port\RIDE\CircleOS\src/draw.c:1593
            XChange += TwoBSquare;
 17e:	189b      	adds	r3, r3, r2
C:\Downloaded Files\Virtual-Com-2\Virtual-Com-2\Project\Virtual_COM_Port\RIDE\CircleOS\src/draw.c:1591
        EllipseError+= YChange;
        YChange+= TwoASquare;
        if ((2*EllipseError + XChange) > 0 )
            {
            X--;
            StoppingX -= TwoBSquare;
 180:	9109      	str	r1, [sp, #36]	; 0x24
C:\Downloaded Files\Virtual-Com-2\Virtual-Com-2\Project\Virtual_COM_Port\RIDE\CircleOS\src/draw.c:1593
            EllipseError += XChange;
            XChange += TwoBSquare;
 182:	9307      	str	r3, [sp, #28]
 184:	3401      	adds	r4, #1
 186:	f10b 3bff 	add.w	fp, fp, #4294967295
 18a:	b2a4      	uxth	r4, r4
 18c:	fa1f fb8b 	uxth.w	fp, fp
C:\Downloaded Files\Virtual-Com-2\Virtual-Com-2\Project\Virtual_COM_Port\RIDE\CircleOS\src/draw.c:1529
* @param[in]     :   Fill_Color Background of the Circle
* @param[in]     :   Fill       Defines if the Ellipse is filled
* @param[in]     :   Ellipse    Defines if the Ellipse is drawn
* @return        :   None
*******************************************************************************/
void DRAW_Ellipse( coord_t CENTER_x, coord_t CENTER_y, coord_t RADIUS_a, coord_t RADIUS_b, color_t Color, color_t Fill_Color, bool Fill, bool Ellipse)
 190:	990e      	ldr	r1, [sp, #56]	; 0x38
C:\Downloaded Files\Virtual-Com-2\Virtual-Com-2\Project\Virtual_COM_Port\RIDE\CircleOS\src/draw.c:1569
            Fill=0;
            DRAW_Ellipse( CENTER_x, CENTER_y, RADIUS_a, RADIUS_b, Color, Fill_Color, 1,0);
            }
        }
        
    while ( StoppingX >= StoppingY )
 192:	9a09      	ldr	r2, [sp, #36]	; 0x24
C:\Downloaded Files\Virtual-Com-2\Virtual-Com-2\Project\Virtual_COM_Port\RIDE\CircleOS\src/draw.c:1529
* @param[in]     :   Fill_Color Background of the Circle
* @param[in]     :   Fill       Defines if the Ellipse is filled
* @param[in]     :   Ellipse    Defines if the Ellipse is drawn
* @return        :   None
*******************************************************************************/
void DRAW_Ellipse( coord_t CENTER_x, coord_t CENTER_y, coord_t RADIUS_a, coord_t RADIUS_b, color_t Color, color_t Fill_Color, bool Fill, bool Ellipse)
 194:	1879      	adds	r1, r7, r1
C:\Downloaded Files\Virtual-Com-2\Virtual-Com-2\Project\Virtual_COM_Port\RIDE\CircleOS\src/draw.c:1569
            Fill=0;
            DRAW_Ellipse( CENTER_x, CENTER_y, RADIUS_a, RADIUS_b, Color, Fill_Color, 1,0);
            }
        }
        
    while ( StoppingX >= StoppingY )
 196:	42ba      	cmp	r2, r7
C:\Downloaded Files\Virtual-Com-2\Virtual-Com-2\Project\Virtual_COM_Port\RIDE\CircleOS\src/draw.c:1529
* @param[in]     :   Fill_Color Background of the Circle
* @param[in]     :   Fill       Defines if the Ellipse is filled
* @param[in]     :   Ellipse    Defines if the Ellipse is drawn
* @return        :   None
*******************************************************************************/
void DRAW_Ellipse( coord_t CENTER_x, coord_t CENTER_y, coord_t RADIUS_a, coord_t RADIUS_b, color_t Color, color_t Fill_Color, bool Fill, bool Ellipse)
 198:	9112      	str	r1, [sp, #72]	; 0x48
C:\Downloaded Files\Virtual-Com-2\Virtual-Com-2\Project\Virtual_COM_Port\RIDE\CircleOS\src/draw.c:1569
            Fill=0;
            DRAW_Ellipse( CENTER_x, CENTER_y, RADIUS_a, RADIUS_b, Color, Fill_Color, 1,0);
            }
        }
        
    while ( StoppingX >= StoppingY )
 19a:	da93      	bge.n	c4 <DRAW_Ellipse+0xc4>
 19c:	4654      	mov	r4, sl
C:\Downloaded Files\Virtual-Com-2\Virtual-Com-2\Project\Virtual_COM_Port\RIDE\CircleOS\src/draw.c:1601
        } // While (StoppingX >= StoppingY)
    
    X = 0;
    Y = RADIUS_b;
    XChange = RADIUS_b*RADIUS_b;
    YChange = RADIUS_a*RADIUS_a*(1-2*RADIUS_b);
 19e:	ea4f 0b44 	mov.w	fp, r4, lsl #1
 1a2:	9b0e      	ldr	r3, [sp, #56]	; 0x38
C:\Downloaded Files\Virtual-Com-2\Virtual-Com-2\Project\Virtual_COM_Port\RIDE\CircleOS\src/draw.c:1604
    EllipseError = 0;
    StoppingX = 0;
    StoppingY = TwoASquare*RADIUS_b;
 1a4:	990b      	ldr	r1, [sp, #44]	; 0x2c
 1a6:	fa1f f689 	uxth.w	r6, r9
C:\Downloaded Files\Virtual-Com-2\Virtual-Com-2\Project\Virtual_COM_Port\RIDE\CircleOS\src/draw.c:1603
    X = 0;
    Y = RADIUS_b;
    XChange = RADIUS_b*RADIUS_b;
    YChange = RADIUS_a*RADIUS_a*(1-2*RADIUS_b);
    EllipseError = 0;
    StoppingX = 0;
 1aa:	2700      	movs	r7, #0
C:\Downloaded Files\Virtual-Com-2\Virtual-Com-2\Project\Virtual_COM_Port\RIDE\CircleOS\src/draw.c:1601
        } // While (StoppingX >= StoppingY)
    
    X = 0;
    Y = RADIUS_b;
    XChange = RADIUS_b*RADIUS_b;
    YChange = RADIUS_a*RADIUS_a*(1-2*RADIUS_b);
 1ac:	f1cb 0b01 	rsb	fp, fp, #1
C:\Downloaded Files\Virtual-Com-2\Virtual-Com-2\Project\Virtual_COM_Port\RIDE\CircleOS\src/draw.c:1604
    EllipseError = 0;
    StoppingX = 0;
    StoppingY = TwoASquare*RADIUS_b;
 1b0:	fb04 fc01 	mul.w	ip, r4, r1
 1b4:	f8dd a04c 	ldr.w	sl, [sp, #76]	; 0x4c
C:\Downloaded Files\Virtual-Com-2\Virtual-Com-2\Project\Virtual_COM_Port\RIDE\CircleOS\src/draw.c:1601
        } // While (StoppingX >= StoppingY)
    
    X = 0;
    Y = RADIUS_b;
    XChange = RADIUS_b*RADIUS_b;
    YChange = RADIUS_a*RADIUS_a*(1-2*RADIUS_b);
 1b8:	fb03 fb0b 	mul.w	fp, r3, fp
C:\Downloaded Files\Virtual-Com-2\Virtual-Com-2\Project\Virtual_COM_Port\RIDE\CircleOS\src/draw.c:1606
    EllipseError = 0;
    StoppingX = 0;
    StoppingY = TwoASquare*RADIUS_b;
    
    while ( StoppingX <= StoppingY )
 1bc:	46b0      	mov	r8, r6
C:\Downloaded Files\Virtual-Com-2\Virtual-Com-2\Project\Virtual_COM_Port\RIDE\CircleOS\src/draw.c:1602
    
    X = 0;
    Y = RADIUS_b;
    XChange = RADIUS_b*RADIUS_b;
    YChange = RADIUS_a*RADIUS_a*(1-2*RADIUS_b);
    EllipseError = 0;
 1be:	463c      	mov	r4, r7
 1c0:	46b9      	mov	r9, r7
C:\Downloaded Files\Virtual-Com-2\Virtual-Com-2\Project\Virtual_COM_Port\RIDE\CircleOS\src/draw.c:1606
    StoppingX = 0;
    StoppingY = TwoASquare*RADIUS_b;
    
    while ( StoppingX <= StoppingY )
 1c2:	e05f      	b.n	284 <DRAW_Ellipse+0x284>
C:\Downloaded Files\Virtual-Com-2\Virtual-Com-2\Project\Virtual_COM_Port\RIDE\CircleOS\src/draw.c:1608
        {
        if(Fill)
 1c4:	9a0d      	ldr	r2, [sp, #52]	; 0x34
 1c6:	b1f2      	cbz	r2, 206 <DRAW_Ellipse+0x206>
C:\Downloaded Files\Virtual-Com-2\Virtual-Com-2\Project\Virtual_COM_Port\RIDE\CircleOS\src/draw.c:1610
            {
            DRAW_Line(CENTER_x+ X, CENTER_y+Y, CENTER_x-X , CENTER_y+Y, Fill_Color);
 1c8:	9b0a      	ldr	r3, [sp, #40]	; 0x28
 1ca:	b232      	sxth	r2, r6
 1cc:	b29f      	uxth	r7, r3
 1ce:	9206      	str	r2, [sp, #24]
 1d0:	eb07 010a 	add.w	r1, r7, sl
 1d4:	9a08      	ldr	r2, [sp, #32]
 1d6:	b209      	sxth	r1, r1
 1d8:	fa0f f388 	sxth.w	r3, r8
 1dc:	9307      	str	r3, [sp, #28]
 1de:	9200      	str	r2, [sp, #0]
 1e0:	9806      	ldr	r0, [sp, #24]
 1e2:	461a      	mov	r2, r3
 1e4:	460b      	mov	r3, r1
 1e6:	f8cd c010 	str.w	ip, [sp, #16]
C:\Downloaded Files\Virtual-Com-2\Virtual-Com-2\Project\Virtual_COM_Port\RIDE\CircleOS\src/draw.c:1611
            DRAW_Line(CENTER_x- X, CENTER_y-Y, CENTER_x+X , CENTER_y-Y, Fill_Color);
 1ea:	ebc7 070a 	rsb	r7, r7, sl
C:\Downloaded Files\Virtual-Com-2\Virtual-Com-2\Project\Virtual_COM_Port\RIDE\CircleOS\src/draw.c:1610
    
    while ( StoppingX <= StoppingY )
        {
        if(Fill)
            {
            DRAW_Line(CENTER_x+ X, CENTER_y+Y, CENTER_x-X , CENTER_y+Y, Fill_Color);
 1ee:	f7ff fffe 	bl	0 <DRAW_Ellipse>
C:\Downloaded Files\Virtual-Com-2\Virtual-Com-2\Project\Virtual_COM_Port\RIDE\CircleOS\src/draw.c:1611
            DRAW_Line(CENTER_x- X, CENTER_y-Y, CENTER_x+X , CENTER_y-Y, Fill_Color);
 1f2:	9b08      	ldr	r3, [sp, #32]
 1f4:	b239      	sxth	r1, r7
 1f6:	9300      	str	r3, [sp, #0]
 1f8:	9807      	ldr	r0, [sp, #28]
 1fa:	9a06      	ldr	r2, [sp, #24]
 1fc:	460b      	mov	r3, r1
 1fe:	f7ff fffe 	bl	0 <DRAW_Ellipse>
 202:	f8dd c010 	ldr.w	ip, [sp, #16]
C:\Downloaded Files\Virtual-Com-2\Virtual-Com-2\Project\Virtual_COM_Port\RIDE\CircleOS\src/draw.c:1614
            }
        
        if (Ellipse)
 206:	9910      	ldr	r1, [sp, #64]	; 0x40
 208:	b331      	cbz	r1, 258 <DRAW_Ellipse+0x258>
C:\Downloaded Files\Virtual-Com-2\Virtual-Com-2\Project\Virtual_COM_Port\RIDE\CircleOS\src/draw.c:1616
            {
            LCD_DrawPixel(CENTER_x+X, CENTER_y+Y,Color); 
 20a:	9a0a      	ldr	r2, [sp, #40]	; 0x28
 20c:	b231      	sxth	r1, r6
 20e:	b293      	uxth	r3, r2
 210:	eb03 070a 	add.w	r7, r3, sl
 214:	b23f      	sxth	r7, r7
 216:	4608      	mov	r0, r1
 218:	9106      	str	r1, [sp, #24]
 21a:	462a      	mov	r2, r5
 21c:	4639      	mov	r1, r7
 21e:	f8cd c010 	str.w	ip, [sp, #16]
 222:	9305      	str	r3, [sp, #20]
 224:	f7ff fffe 	bl	0 <LCD_DrawPixel>
C:\Downloaded Files\Virtual-Com-2\Virtual-Com-2\Project\Virtual_COM_Port\RIDE\CircleOS\src/draw.c:1617
            LCD_DrawPixel(CENTER_x-X, CENTER_y+Y,Color); 
 228:	fa0f f288 	sxth.w	r2, r8
 22c:	4610      	mov	r0, r2
 22e:	4639      	mov	r1, r7
 230:	9207      	str	r2, [sp, #28]
 232:	462a      	mov	r2, r5
 234:	f7ff fffe 	bl	0 <LCD_DrawPixel>
C:\Downloaded Files\Virtual-Com-2\Virtual-Com-2\Project\Virtual_COM_Port\RIDE\CircleOS\src/draw.c:1618
            LCD_DrawPixel(CENTER_x-X, CENTER_y-Y,Color); 
 238:	9b05      	ldr	r3, [sp, #20]
 23a:	9807      	ldr	r0, [sp, #28]
 23c:	ebc3 070a 	rsb	r7, r3, sl
 240:	b23f      	sxth	r7, r7
 242:	4639      	mov	r1, r7
 244:	462a      	mov	r2, r5
 246:	f7ff fffe 	bl	0 <LCD_DrawPixel>
C:\Downloaded Files\Virtual-Com-2\Virtual-Com-2\Project\Virtual_COM_Port\RIDE\CircleOS\src/draw.c:1619
            LCD_DrawPixel(CENTER_x+X, CENTER_y-Y,Color); 
 24a:	9806      	ldr	r0, [sp, #24]
 24c:	4639      	mov	r1, r7
 24e:	462a      	mov	r2, r5
 250:	f7ff fffe 	bl	0 <LCD_DrawPixel>
 254:	f8dd c010 	ldr.w	ip, [sp, #16]
C:\Downloaded Files\Virtual-Com-2\Virtual-Com-2\Project\Virtual_COM_Port\RIDE\CircleOS\src/draw.c:1624
            }
        
        X++;
        StoppingX += TwoBSquare;
        EllipseError += XChange;
 258:	9909      	ldr	r1, [sp, #36]	; 0x24
C:\Downloaded Files\Virtual-Com-2\Virtual-Com-2\Project\Virtual_COM_Port\RIDE\CircleOS\src/draw.c:1529
* @param[in]     :   Fill_Color Background of the Circle
* @param[in]     :   Fill       Defines if the Ellipse is filled
* @param[in]     :   Ellipse    Defines if the Ellipse is drawn
* @return        :   None
*******************************************************************************/
void DRAW_Ellipse( coord_t CENTER_x, coord_t CENTER_y, coord_t RADIUS_a, coord_t RADIUS_b, color_t Color, color_t Fill_Color, bool Fill, bool Ellipse)
 25a:	9b0c      	ldr	r3, [sp, #48]	; 0x30
C:\Downloaded Files\Virtual-Com-2\Virtual-Com-2\Project\Virtual_COM_Port\RIDE\CircleOS\src/draw.c:1624
            LCD_DrawPixel(CENTER_x+X, CENTER_y-Y,Color); 
            }
        
        X++;
        StoppingX += TwoBSquare;
        EllipseError += XChange;
 25c:	1864      	adds	r4, r4, r1
C:\Downloaded Files\Virtual-Com-2\Virtual-Com-2\Project\Virtual_COM_Port\RIDE\CircleOS\src/draw.c:1529
* @param[in]     :   Fill_Color Background of the Circle
* @param[in]     :   Fill       Defines if the Ellipse is filled
* @param[in]     :   Ellipse    Defines if the Ellipse is drawn
* @return        :   None
*******************************************************************************/
void DRAW_Ellipse( coord_t CENTER_x, coord_t CENTER_y, coord_t RADIUS_a, coord_t RADIUS_b, color_t Color, color_t Fill_Color, bool Fill, bool Ellipse)
 25e:	4499      	add	r9, r3
C:\Downloaded Files\Virtual-Com-2\Virtual-Com-2\Project\Virtual_COM_Port\RIDE\CircleOS\src/draw.c:1627
        X++;
        StoppingX += TwoBSquare;
        EllipseError += XChange;
        XChange += TwoBSquare;
        
        if ((2*EllipseError + YChange) > 0 )
 260:	eb0b 0344 	add.w	r3, fp, r4, lsl #1
 264:	2b00      	cmp	r3, #0
 266:	dd07      	ble.n	278 <DRAW_Ellipse+0x278>
C:\Downloaded Files\Virtual-Com-2\Virtual-Com-2\Project\Virtual_COM_Port\RIDE\CircleOS\src/draw.c:1629
            {
            Y--;
 268:	9a0a      	ldr	r2, [sp, #40]	; 0x28
C:\Downloaded Files\Virtual-Com-2\Virtual-Com-2\Project\Virtual_COM_Port\RIDE\CircleOS\src/draw.c:1630
            StoppingY -= TwoASquare;
 26a:	9b0b      	ldr	r3, [sp, #44]	; 0x2c
C:\Downloaded Files\Virtual-Com-2\Virtual-Com-2\Project\Virtual_COM_Port\RIDE\CircleOS\src/draw.c:1629
        EllipseError += XChange;
        XChange += TwoBSquare;
        
        if ((2*EllipseError + YChange) > 0 )
            {
            Y--;
 26c:	3a01      	subs	r2, #1
C:\Downloaded Files\Virtual-Com-2\Virtual-Com-2\Project\Virtual_COM_Port\RIDE\CircleOS\src/draw.c:1631
            StoppingY -= TwoASquare;
            EllipseError += YChange;
 26e:	445c      	add	r4, fp
C:\Downloaded Files\Virtual-Com-2\Virtual-Com-2\Project\Virtual_COM_Port\RIDE\CircleOS\src/draw.c:1629
        EllipseError += XChange;
        XChange += TwoBSquare;
        
        if ((2*EllipseError + YChange) > 0 )
            {
            Y--;
 270:	920a      	str	r2, [sp, #40]	; 0x28
C:\Downloaded Files\Virtual-Com-2\Virtual-Com-2\Project\Virtual_COM_Port\RIDE\CircleOS\src/draw.c:1630
            StoppingY -= TwoASquare;
 272:	ebc3 0c0c 	rsb	ip, r3, ip
C:\Downloaded Files\Virtual-Com-2\Virtual-Com-2\Project\Virtual_COM_Port\RIDE\CircleOS\src/draw.c:1632
            EllipseError += YChange;
            YChange += TwoASquare;
 276:	449b      	add	fp, r3
 278:	3601      	adds	r6, #1
 27a:	f108 38ff 	add.w	r8, r8, #4294967295
 27e:	b2b6      	uxth	r6, r6
 280:	fa1f f888 	uxth.w	r8, r8
C:\Downloaded Files\Virtual-Com-2\Virtual-Com-2\Project\Virtual_COM_Port\RIDE\CircleOS\src/draw.c:1529
* @param[in]     :   Fill_Color Background of the Circle
* @param[in]     :   Fill       Defines if the Ellipse is filled
* @param[in]     :   Ellipse    Defines if the Ellipse is drawn
* @return        :   None
*******************************************************************************/
void DRAW_Ellipse( coord_t CENTER_x, coord_t CENTER_y, coord_t RADIUS_a, coord_t RADIUS_b, color_t Color, color_t Fill_Color, bool Fill, bool Ellipse)
 284:	990f      	ldr	r1, [sp, #60]	; 0x3c
C:\Downloaded Files\Virtual-Com-2\Virtual-Com-2\Project\Virtual_COM_Port\RIDE\CircleOS\src/draw.c:1606
    YChange = RADIUS_a*RADIUS_a*(1-2*RADIUS_b);
    EllipseError = 0;
    StoppingX = 0;
    StoppingY = TwoASquare*RADIUS_b;
    
    while ( StoppingX <= StoppingY )
 286:	45e1      	cmp	r9, ip
C:\Downloaded Files\Virtual-Com-2\Virtual-Com-2\Project\Virtual_COM_Port\RIDE\CircleOS\src/draw.c:1529
* @param[in]     :   Fill_Color Background of the Circle
* @param[in]     :   Fill       Defines if the Ellipse is filled
* @param[in]     :   Ellipse    Defines if the Ellipse is drawn
* @return        :   None
*******************************************************************************/
void DRAW_Ellipse( coord_t CENTER_x, coord_t CENTER_y, coord_t RADIUS_a, coord_t RADIUS_b, color_t Color, color_t Fill_Color, bool Fill, bool Ellipse)
 288:	4449      	add	r1, r9
 28a:	9109      	str	r1, [sp, #36]	; 0x24
C:\Downloaded Files\Virtual-Com-2\Virtual-Com-2\Project\Virtual_COM_Port\RIDE\CircleOS\src/draw.c:1606
    YChange = RADIUS_a*RADIUS_a*(1-2*RADIUS_b);
    EllipseError = 0;
    StoppingX = 0;
    StoppingY = TwoASquare*RADIUS_b;
    
    while ( StoppingX <= StoppingY )
 28c:	dd9a      	ble.n	1c4 <DRAW_Ellipse+0x1c4>
C:\Downloaded Files\Virtual-Com-2\Virtual-Com-2\Project\Virtual_COM_Port\RIDE\CircleOS\src/draw.c:1636
            EllipseError += YChange;
            YChange += TwoASquare;
            }
        
        } // While (StoppingX <= StoppingY)
    }
 28e:	b015      	add	sp, #84	; 0x54
 290:	e8bd 8ff0 	ldmia.w	sp!, {r4, r5, r6, r7, r8, r9, sl, fp, pc}
	...

Disassembly of section .text.DRAW_Polygon:

00000000 <DRAW_Polygon>:
DRAW_Polygon():
C:\Downloaded Files\Virtual-Com-2\Virtual-Com-2\Project\Virtual_COM_Port\RIDE\CircleOS\src/draw.c:1654
* @param[in]     :   NUM_Points  Number of pointscolor of the line
* @param[in]     :   Line_Color  Color of the line.
* @return        :   None
*******************************************************************************/
void DRAW_Polygon(coord_t *points, u16 NUM_Points, color_t Line_Color)
    {
   0:	b5f7      	push	{r0, r1, r2, r4, r5, r6, r7, lr}
   2:	4617      	mov	r7, r2
C:\Downloaded Files\Virtual-Com-2\Virtual-Com-2\Project\Virtual_COM_Port\RIDE\CircleOS\src/draw.c:1657
    int i=1;

    if (points)
   4:	b190      	cbz	r0, 2c <DRAW_Polygon+0x2c>
C:\Downloaded Files\Virtual-Com-2\Virtual-Com-2\Project\Virtual_COM_Port\RIDE\CircleOS\src/draw.c:1659
        {
        for(i=1; i < NUM_Points >>1 ;i++)
   6:	084e      	lsrs	r6, r1, #1
   8:	4604      	mov	r4, r0
   a:	2501      	movs	r5, #1
   c:	e00b      	b.n	26 <DRAW_Polygon+0x26>
C:\Downloaded Files\Virtual-Com-2\Virtual-Com-2\Project\Virtual_COM_Port\RIDE\CircleOS\src/draw.c:1661
            {
            DRAW_Line(points[(i-1)*2], points[1+(i-1)*2], points[(i)*2], points[1+(i)*2], Line_Color);
   e:	f934 0c04 	ldrsh.w	r0, [r4, #-4]
  12:	f934 1c02 	ldrsh.w	r1, [r4, #-2]
  16:	f9b4 2000 	ldrsh.w	r2, [r4]
  1a:	f9b4 3002 	ldrsh.w	r3, [r4, #2]
  1e:	9700      	str	r7, [sp, #0]
  20:	f7ff fffe 	bl	0 <DRAW_Polygon>
C:\Downloaded Files\Virtual-Com-2\Virtual-Com-2\Project\Virtual_COM_Port\RIDE\CircleOS\src/draw.c:1659
    {
    int i=1;

    if (points)
        {
        for(i=1; i < NUM_Points >>1 ;i++)
  24:	3501      	adds	r5, #1
  26:	3404      	adds	r4, #4
  28:	42b5      	cmp	r5, r6
  2a:	dbf0      	blt.n	e <DRAW_Polygon+0xe>
C:\Downloaded Files\Virtual-Com-2\Virtual-Com-2\Project\Virtual_COM_Port\RIDE\CircleOS\src/draw.c:1664
            {
            DRAW_Line(points[(i-1)*2], points[1+(i-1)*2], points[(i)*2], points[1+(i)*2], Line_Color);
            }
        }
    }
  2c:	bdfe      	pop	{r1, r2, r3, r4, r5, r6, r7, pc}
