
C:\Downloaded Files\Virtual-Com-2\Virtual-Com-2\Project\Virtual_COM_Port\RIDE\STM3210E-OPEN4\stm32f10x_flash.o:     file format elf32-littlearm
C:\Downloaded Files\Virtual-Com-2\Virtual-Com-2\Project\Virtual_COM_Port\RIDE\STM3210E-OPEN4\stm32f10x_flash.o


Disassembly of section .text.FLASH_SetLatency:

00000000 <FLASH_SetLatency>:
FLASH_SetLatency():
C:\Downloaded Files\Virtual-Com-2\Virtual-Com-2\Project\Virtual_COM_Port\RIDE\Libraries\STM32F10x_StdPeriph_Driver\src/stm32f10x_flash.c:261
  
  /* Check the parameters */
  assert_param(IS_FLASH_LATENCY(FLASH_Latency));
  
  /* Read the ACR register */
  tmpreg = FLASH->ACR;  
   0:	4b03      	ldr	r3, [pc, #12]	; (10 <FLASH_SetLatency+0x10>)
   2:	681a      	ldr	r2, [r3, #0]
C:\Downloaded Files\Virtual-Com-2\Virtual-Com-2\Project\Virtual_COM_Port\RIDE\Libraries\STM32F10x_StdPeriph_Driver\src/stm32f10x_flash.c:264
  
  /* Sets the Latency value */
  tmpreg &= ACR_LATENCY_Mask;
   4:	f002 0238 	and.w	r2, r2, #56	; 0x38
C:\Downloaded Files\Virtual-Com-2\Virtual-Com-2\Project\Virtual_COM_Port\RIDE\Libraries\STM32F10x_StdPeriph_Driver\src/stm32f10x_flash.c:265
  tmpreg |= FLASH_Latency;
   8:	ea40 0202 	orr.w	r2, r0, r2
C:\Downloaded Files\Virtual-Com-2\Virtual-Com-2\Project\Virtual_COM_Port\RIDE\Libraries\STM32F10x_StdPeriph_Driver\src/stm32f10x_flash.c:268
  
  /* Write the ACR register */
  FLASH->ACR = tmpreg;
   c:	601a      	str	r2, [r3, #0]
C:\Downloaded Files\Virtual-Com-2\Virtual-Com-2\Project\Virtual_COM_Port\RIDE\Libraries\STM32F10x_StdPeriph_Driver\src/stm32f10x_flash.c:269
}
   e:	4770      	bx	lr
  10:	40022000 	.word	0x40022000

Disassembly of section .text.FLASH_HalfCycleAccessCmd:

00000000 <FLASH_HalfCycleAccessCmd>:
FLASH_HalfCycleAccessCmd():
C:\Downloaded Files\Virtual-Com-2\Virtual-Com-2\Project\Virtual_COM_Port\RIDE\Libraries\STM32F10x_StdPeriph_Driver\src/stm32f10x_flash.c:286
{
  /* Check the parameters */
  assert_param(IS_FLASH_HALFCYCLEACCESS_STATE(FLASH_HalfCycleAccess));
  
  /* Enable or disable the Half cycle access */
  FLASH->ACR &= ACR_HLFCYA_Mask;
   0:	4b04      	ldr	r3, [pc, #16]	; (14 <FLASH_HalfCycleAccessCmd+0x14>)
   2:	681a      	ldr	r2, [r3, #0]
   4:	f022 0208 	bic.w	r2, r2, #8
   8:	601a      	str	r2, [r3, #0]
C:\Downloaded Files\Virtual-Com-2\Virtual-Com-2\Project\Virtual_COM_Port\RIDE\Libraries\STM32F10x_StdPeriph_Driver\src/stm32f10x_flash.c:287
  FLASH->ACR |= FLASH_HalfCycleAccess;
   a:	681a      	ldr	r2, [r3, #0]
   c:	ea40 0202 	orr.w	r2, r0, r2
  10:	601a      	str	r2, [r3, #0]
C:\Downloaded Files\Virtual-Com-2\Virtual-Com-2\Project\Virtual_COM_Port\RIDE\Libraries\STM32F10x_StdPeriph_Driver\src/stm32f10x_flash.c:288
}
  12:	4770      	bx	lr
  14:	40022000 	.word	0x40022000

Disassembly of section .text.FLASH_PrefetchBufferCmd:

00000000 <FLASH_PrefetchBufferCmd>:
FLASH_PrefetchBufferCmd():
C:\Downloaded Files\Virtual-Com-2\Virtual-Com-2\Project\Virtual_COM_Port\RIDE\Libraries\STM32F10x_StdPeriph_Driver\src/stm32f10x_flash.c:305
{
  /* Check the parameters */
  assert_param(IS_FLASH_PREFETCHBUFFER_STATE(FLASH_PrefetchBuffer));
  
  /* Enable or disable the Prefetch Buffer */
  FLASH->ACR &= ACR_PRFTBE_Mask;
   0:	4b04      	ldr	r3, [pc, #16]	; (14 <FLASH_PrefetchBufferCmd+0x14>)
   2:	681a      	ldr	r2, [r3, #0]
   4:	f022 0210 	bic.w	r2, r2, #16
   8:	601a      	str	r2, [r3, #0]
C:\Downloaded Files\Virtual-Com-2\Virtual-Com-2\Project\Virtual_COM_Port\RIDE\Libraries\STM32F10x_StdPeriph_Driver\src/stm32f10x_flash.c:306
  FLASH->ACR |= FLASH_PrefetchBuffer;
   a:	681a      	ldr	r2, [r3, #0]
   c:	ea40 0202 	orr.w	r2, r0, r2
  10:	601a      	str	r2, [r3, #0]
C:\Downloaded Files\Virtual-Com-2\Virtual-Com-2\Project\Virtual_COM_Port\RIDE\Libraries\STM32F10x_StdPeriph_Driver\src/stm32f10x_flash.c:307
}
  12:	4770      	bx	lr
  14:	40022000 	.word	0x40022000

Disassembly of section .text.FLASH_Unlock:

00000000 <FLASH_Unlock>:
FLASH_Unlock():
C:\Downloaded Files\Virtual-Com-2\Virtual-Com-2\Project\Virtual_COM_Port\RIDE\Libraries\STM32F10x_StdPeriph_Driver\src/stm32f10x_flash.c:321
  * @retval None
  */
void FLASH_Unlock(void)
{
  /* Authorize the FPEC of Bank1 Access */
  FLASH->KEYR = FLASH_KEY1;
   0:	4a034b02 	.word	0x4a034b02
   4:	605a      	str	r2, [r3, #4]
C:\Downloaded Files\Virtual-Com-2\Virtual-Com-2\Project\Virtual_COM_Port\RIDE\Libraries\STM32F10x_StdPeriph_Driver\src/stm32f10x_flash.c:322
  FLASH->KEYR = FLASH_KEY2;
   6:	4a03      	ldr	r2, [pc, #12]	; (14 <FLASH_Unlock+0x14>)
   8:	605a      	str	r2, [r3, #4]
C:\Downloaded Files\Virtual-Com-2\Virtual-Com-2\Project\Virtual_COM_Port\RIDE\Libraries\STM32F10x_StdPeriph_Driver\src/stm32f10x_flash.c:329
#ifdef STM32F10X_XL
  /* Authorize the FPEC of Bank2 Access */
  FLASH->KEYR2 = FLASH_KEY1;
  FLASH->KEYR2 = FLASH_KEY2;
#endif /* STM32F10X_XL */
}
   a:	4770      	bx	lr
   c:	40022000 	.word	0x40022000
  10:	45670123 	.word	0x45670123
  14:	cdef89ab 	.word	0xcdef89ab

Disassembly of section .text.FLASH_UnlockBank1:

00000000 <FLASH_UnlockBank1>:
FLASH_UnlockBank1():
C:\Downloaded Files\Virtual-Com-2\Virtual-Com-2\Project\Virtual_COM_Port\RIDE\Libraries\STM32F10x_StdPeriph_Driver\src/stm32f10x_flash.c:342
  * @retval None
  */
void FLASH_UnlockBank1(void)
{
  /* Authorize the FPEC of Bank1 Access */
  FLASH->KEYR = FLASH_KEY1;
   0:	4b02      	ldr	r3, [pc, #8]	; (c <FLASH_UnlockBank1+0xc>)
   2:	4a03      	ldr	r2, [pc, #12]	; (10 <FLASH_UnlockBank1+0x10>)
   4:	605a      	str	r2, [r3, #4]
C:\Downloaded Files\Virtual-Com-2\Virtual-Com-2\Project\Virtual_COM_Port\RIDE\Libraries\STM32F10x_StdPeriph_Driver\src/stm32f10x_flash.c:343
  FLASH->KEYR = FLASH_KEY2;
   6:	4a03      	ldr	r2, [pc, #12]	; (14 <FLASH_UnlockBank1+0x14>)
   8:	605a      	str	r2, [r3, #4]
C:\Downloaded Files\Virtual-Com-2\Virtual-Com-2\Project\Virtual_COM_Port\RIDE\Libraries\STM32F10x_StdPeriph_Driver\src/stm32f10x_flash.c:344
}
   a:	4770      	bx	lr
   c:	40022000 	.word	0x40022000
  10:	45670123 	.word	0x45670123
  14:	cdef89ab 	.word	0xcdef89ab

Disassembly of section .text.FLASH_Lock:

00000000 <FLASH_Lock>:
FLASH_Lock():
C:\Downloaded Files\Virtual-Com-2\Virtual-Com-2\Project\Virtual_COM_Port\RIDE\Libraries\STM32F10x_StdPeriph_Driver\src/stm32f10x_flash.c:374
  * @retval None
  */
void FLASH_Lock(void)
{
  /* Set the Lock Bit to lock the FPEC and the CR of  Bank1 */
  FLASH->CR |= CR_LOCK_Set;
   0:	4b02      	ldr	r3, [pc, #8]	; (c <FLASH_Lock+0xc>)
   2:	691a      	ldr	r2, [r3, #16]
   4:	f042 0280 	orr.w	r2, r2, #128	; 0x80
   8:	611a      	str	r2, [r3, #16]
C:\Downloaded Files\Virtual-Com-2\Virtual-Com-2\Project\Virtual_COM_Port\RIDE\Libraries\STM32F10x_StdPeriph_Driver\src/stm32f10x_flash.c:380

#ifdef STM32F10X_XL
  /* Set the Lock Bit to lock the FPEC and the CR of  Bank2 */
  FLASH->CR2 |= CR_LOCK_Set;
#endif /* STM32F10X_XL */
}
   a:	4770      	bx	lr
   c:	40022000 	.word	0x40022000

Disassembly of section .text.FLASH_LockBank1:

00000000 <FLASH_LockBank1>:
FLASH_LockBank1():
C:\Downloaded Files\Virtual-Com-2\Virtual-Com-2\Project\Virtual_COM_Port\RIDE\Libraries\STM32F10x_StdPeriph_Driver\src/stm32f10x_flash.c:394
  * @retval None
  */
void FLASH_LockBank1(void)
{
  /* Set the Lock Bit to lock the FPEC and the CR of  Bank1 */
  FLASH->CR |= CR_LOCK_Set;
   0:	4b02      	ldr	r3, [pc, #8]	; (c <FLASH_LockBank1+0xc>)
   2:	691a      	ldr	r2, [r3, #16]
   4:	f042 0280 	orr.w	r2, r2, #128	; 0x80
   8:	611a      	str	r2, [r3, #16]
C:\Downloaded Files\Virtual-Com-2\Virtual-Com-2\Project\Virtual_COM_Port\RIDE\Libraries\STM32F10x_StdPeriph_Driver\src/stm32f10x_flash.c:395
}
   a:	4770      	bx	lr
   c:	40022000 	.word	0x40022000

Disassembly of section .text.FLASH_GetUserOptionByte:

00000000 <FLASH_GetUserOptionByte>:
FLASH_GetUserOptionByte():
C:\Downloaded Files\Virtual-Com-2\Virtual-Com-2\Project\Virtual_COM_Port\RIDE\Libraries\STM32F10x_StdPeriph_Driver\src/stm32f10x_flash.c:1270
  *   and RST_STDBY(Bit2).
  */
uint32_t FLASH_GetUserOptionByte(void)
{
  /* Return the User Option Byte */
  return (uint32_t)(FLASH->OBR >> 2);
   0:	69d84b01 	.word	0x69d84b01
C:\Downloaded Files\Virtual-Com-2\Virtual-Com-2\Project\Virtual_COM_Port\RIDE\Libraries\STM32F10x_StdPeriph_Driver\src/stm32f10x_flash.c:1271
}
   4:	0880      	lsrs	r0, r0, #2
   6:	4770      	bx	lr
   8:	40022000 	.word	0x40022000

Disassembly of section .text.FLASH_GetWriteProtectionOptionByte:

00000000 <FLASH_GetWriteProtectionOptionByte>:
FLASH_GetWriteProtectionOptionByte():
C:\Downloaded Files\Virtual-Com-2\Virtual-Com-2\Project\Virtual_COM_Port\RIDE\Libraries\STM32F10x_StdPeriph_Driver\src/stm32f10x_flash.c:1282
  * @retval The FLASH Write Protection  Option Bytes Register value
  */
uint32_t FLASH_GetWriteProtectionOptionByte(void)
{
  /* Return the Falsh write protection Register value */
  return (uint32_t)(FLASH->WRPR);
   0:	4b01      	ldr	r3, [pc, #4]	; (8 <FLASH_GetWriteProtectionOptionByte+0x8>)
   2:	6a18      	ldr	r0, [r3, #32]
C:\Downloaded Files\Virtual-Com-2\Virtual-Com-2\Project\Virtual_COM_Port\RIDE\Libraries\STM32F10x_StdPeriph_Driver\src/stm32f10x_flash.c:1283
}
   4:	4770      	bx	lr
   6:	bf00      	nop
   8:	40022000 	.word	0x40022000

Disassembly of section .text.FLASH_GetReadOutProtectionStatus:

00000000 <FLASH_GetReadOutProtectionStatus>:
FLASH_GetReadOutProtectionStatus():
C:\Downloaded Files\Virtual-Com-2\Virtual-Com-2\Project\Virtual_COM_Port\RIDE\Libraries\STM32F10x_StdPeriph_Driver\src/stm32f10x_flash.c:1294
  * @retval FLASH ReadOut Protection Status(SET or RESET)
  */
FlagStatus FLASH_GetReadOutProtectionStatus(void)
{
  FlagStatus readoutstatus = RESET;
  if ((FLASH->OBR & RDPRT_Mask) != (uint32_t)RESET)
   0:	4b02      	ldr	r3, [pc, #8]	; (c <FLASH_GetReadOutProtectionStatus+0xc>)
   2:	69d8      	ldr	r0, [r3, #28]
C:\Downloaded Files\Virtual-Com-2\Virtual-Com-2\Project\Virtual_COM_Port\RIDE\Libraries\STM32F10x_StdPeriph_Driver\src/stm32f10x_flash.c:1303
  else
  {
    readoutstatus = RESET;
  }
  return readoutstatus;
}
   4:	f3c0 0040 	ubfx	r0, r0, #1, #1
   8:	4770      	bx	lr
   a:	bf00      	nop
   c:	40022000 	.word	0x40022000

Disassembly of section .text.FLASH_GetPrefetchBufferStatus:

00000000 <FLASH_GetPrefetchBufferStatus>:
FLASH_GetPrefetchBufferStatus():
C:\Downloaded Files\Virtual-Com-2\Virtual-Com-2\Project\Virtual_COM_Port\RIDE\Libraries\STM32F10x_StdPeriph_Driver\src/stm32f10x_flash.c:1315
  */
FlagStatus FLASH_GetPrefetchBufferStatus(void)
{
  FlagStatus bitstatus = RESET;
  
  if ((FLASH->ACR & ACR_PRFTBS_Mask) != (uint32_t)RESET)
   0:	4b02      	ldr	r3, [pc, #8]	; (c <FLASH_GetPrefetchBufferStatus+0xc>)
   2:	6818      	ldr	r0, [r3, #0]
C:\Downloaded Files\Virtual-Com-2\Virtual-Com-2\Project\Virtual_COM_Port\RIDE\Libraries\STM32F10x_StdPeriph_Driver\src/stm32f10x_flash.c:1325
  {
    bitstatus = RESET;
  }
  /* Return the new state of FLASH Prefetch Buffer Status (SET or RESET) */
  return bitstatus; 
}
   4:	f3c0 1040 	ubfx	r0, r0, #5, #1
   8:	4770      	bx	lr
   a:	bf00      	nop
   c:	40022000 	.word	0x40022000

Disassembly of section .text.FLASH_ITConfig:

00000000 <FLASH_ITConfig>:
FLASH_ITConfig():
C:\Downloaded Files\Virtual-Com-2\Virtual-Com-2\Project\Virtual_COM_Port\RIDE\Libraries\STM32F10x_StdPeriph_Driver\src/stm32f10x_flash.c:1342
  * @param  NewState: new state of the specified Flash interrupts.
  *   This parameter can be: ENABLE or DISABLE.      
  * @retval None 
  */
void FLASH_ITConfig(uint32_t FLASH_IT, FunctionalState NewState)
{
   0:	4b04      	ldr	r3, [pc, #16]	; (14 <FLASH_ITConfig+0x14>)
C:\Downloaded Files\Virtual-Com-2\Virtual-Com-2\Project\Virtual_COM_Port\RIDE\Libraries\STM32F10x_StdPeriph_Driver\src/stm32f10x_flash.c:1379
#else
  /* Check the parameters */
  assert_param(IS_FLASH_IT(FLASH_IT)); 
  assert_param(IS_FUNCTIONAL_STATE(NewState));

  if(NewState != DISABLE)
   2:	b111      	cbz	r1, a <FLASH_ITConfig+0xa>
C:\Downloaded Files\Virtual-Com-2\Virtual-Com-2\Project\Virtual_COM_Port\RIDE\Libraries\STM32F10x_StdPeriph_Driver\src/stm32f10x_flash.c:1382
  {
    /* Enable the interrupt sources */
    FLASH->CR |= FLASH_IT;
   4:	691a      	ldr	r2, [r3, #16]
   6:	4310      	orrs	r0, r2
   8:	e002      	b.n	10 <FLASH_ITConfig+0x10>
C:\Downloaded Files\Virtual-Com-2\Virtual-Com-2\Project\Virtual_COM_Port\RIDE\Libraries\STM32F10x_StdPeriph_Driver\src/stm32f10x_flash.c:1387
  }
  else
  {
    /* Disable the interrupt sources */
    FLASH->CR &= ~(uint32_t)FLASH_IT;
   a:	691a      	ldr	r2, [r3, #16]
   c:	ea22 0000 	bic.w	r0, r2, r0
  10:	6118      	str	r0, [r3, #16]
  12:	4770      	bx	lr
  14:	40022000 	.word	0x40022000

Disassembly of section .text.FLASH_GetFlagStatus:

00000000 <FLASH_GetFlagStatus>:
FLASH_GetFlagStatus():
C:\Downloaded Files\Virtual-Com-2\Virtual-Com-2\Project\Virtual_COM_Port\RIDE\Libraries\STM32F10x_StdPeriph_Driver\src/stm32f10x_flash.c:1454
    }
  }
#else
  /* Check the parameters */
  assert_param(IS_FLASH_GET_FLAG(FLASH_FLAG)) ;
  if(FLASH_FLAG == FLASH_FLAG_OPTERR) 
   0:	2801      	cmp	r0, #1
   2:	4b06      	ldr	r3, [pc, #24]	; (1c <FLASH_GetFlagStatus+0x1c>)
   4:	d103      	bne.n	e <FLASH_GetFlagStatus+0xe>
C:\Downloaded Files\Virtual-Com-2\Virtual-Com-2\Project\Virtual_COM_Port\RIDE\Libraries\STM32F10x_StdPeriph_Driver\src/stm32f10x_flash.c:1456
  {
    if((FLASH->OBR & FLASH_FLAG_OPTERR) != (uint32_t)RESET)
   6:	69d8      	ldr	r0, [r3, #28]
C:\Downloaded Files\Virtual-Com-2\Virtual-Com-2\Project\Virtual_COM_Port\RIDE\Libraries\STM32F10x_StdPeriph_Driver\src/stm32f10x_flash.c:1462
    {
      bitstatus = SET;
    }
    else
    {
      bitstatus = RESET;
   8:	f000 0001 	and.w	r0, r0, #1
   c:	4770      	bx	lr
C:\Downloaded Files\Virtual-Com-2\Virtual-Com-2\Project\Virtual_COM_Port\RIDE\Libraries\STM32F10x_StdPeriph_Driver\src/stm32f10x_flash.c:1467
    }
  }
  else
  {
   if((FLASH->SR & FLASH_FLAG) != (uint32_t)RESET)
   e:	68db      	ldr	r3, [r3, #12]
C:\Downloaded Files\Virtual-Com-2\Virtual-Com-2\Project\Virtual_COM_Port\RIDE\Libraries\STM32F10x_StdPeriph_Driver\src/stm32f10x_flash.c:1462
    {
      bitstatus = SET;
    }
    else
    {
      bitstatus = RESET;
  10:	4218      	tst	r0, r3
  12:	bf0c      	ite	eq
  14:	2000      	moveq	r0, #0
  16:	2001      	movne	r0, #1
C:\Downloaded Files\Virtual-Com-2\Virtual-Com-2\Project\Virtual_COM_Port\RIDE\Libraries\STM32F10x_StdPeriph_Driver\src/stm32f10x_flash.c:1480
  }
#endif /* STM32F10X_XL */

  /* Return the new state of FLASH_FLAG (SET or RESET) */
  return bitstatus;
}
  18:	4770      	bx	lr
  1a:	bf00      	nop
  1c:	40022000 	.word	0x40022000

Disassembly of section .text.FLASH_ClearFlag:

00000000 <FLASH_ClearFlag>:
FLASH_ClearFlag():
C:\Downloaded Files\Virtual-Com-2\Virtual-Com-2\Project\Virtual_COM_Port\RIDE\Libraries\STM32F10x_StdPeriph_Driver\src/stm32f10x_flash.c:1516
#else
  /* Check the parameters */
  assert_param(IS_FLASH_CLEAR_FLAG(FLASH_FLAG)) ;
  
  /* Clear the flags */
  FLASH->SR = FLASH_FLAG;
   0:	60d84b01 	.word	0x60d84b01
C:\Downloaded Files\Virtual-Com-2\Virtual-Com-2\Project\Virtual_COM_Port\RIDE\Libraries\STM32F10x_StdPeriph_Driver\src/stm32f10x_flash.c:1518
#endif /* STM32F10X_XL */
}
   4:	4770      	bx	lr
   6:	bf00      	nop
   8:	40022000 	.word	0x40022000

Disassembly of section .text.FLASH_GetStatus:

00000000 <FLASH_GetStatus>:
FLASH_GetStatus():
C:\Downloaded Files\Virtual-Com-2\Virtual-Com-2\Project\Virtual_COM_Port\RIDE\Libraries\STM32F10x_StdPeriph_Driver\src/stm32f10x_flash.c:1532
  */
FLASH_Status FLASH_GetStatus(void)
{
  FLASH_Status flashstatus = FLASH_COMPLETE;
  
  if((FLASH->SR & FLASH_FLAG_BSY) == FLASH_FLAG_BSY) 
   0:	4b0a      	ldr	r3, [pc, #40]	; (2c <FLASH_GetStatus+0x2c>)
   2:	68da      	ldr	r2, [r3, #12]
   4:	f012 0f01 	tst.w	r2, #1
   8:	d10b      	bne.n	22 <FLASH_GetStatus+0x22>
C:\Downloaded Files\Virtual-Com-2\Virtual-Com-2\Project\Virtual_COM_Port\RIDE\Libraries\STM32F10x_StdPeriph_Driver\src/stm32f10x_flash.c:1538
  {
    flashstatus = FLASH_BUSY;
  }
  else 
  {  
    if((FLASH->SR & FLASH_FLAG_PGERR) != 0)
   a:	68da      	ldr	r2, [r3, #12]
   c:	f012 0f04 	tst.w	r2, #4
  10:	d109      	bne.n	26 <FLASH_GetStatus+0x26>
C:\Downloaded Files\Virtual-Com-2\Virtual-Com-2\Project\Virtual_COM_Port\RIDE\Libraries\STM32F10x_StdPeriph_Driver\src/stm32f10x_flash.c:1544
    { 
      flashstatus = FLASH_ERROR_PG;
    }
    else 
    {
      if((FLASH->SR & FLASH_FLAG_WRPRTERR) != 0 )
  12:	68d8      	ldr	r0, [r3, #12]
  14:	f000 0010 	and.w	r0, r0, #16
C:\Downloaded Files\Virtual-Com-2\Virtual-Com-2\Project\Virtual_COM_Port\RIDE\Libraries\STM32F10x_StdPeriph_Driver\src/stm32f10x_flash.c:1546
      {
        flashstatus = FLASH_ERROR_WRP;
  18:	2800      	cmp	r0, #0
  1a:	bf0c      	ite	eq
  1c:	2004      	moveq	r0, #4
  1e:	2003      	movne	r0, #3
  20:	4770      	bx	lr
C:\Downloaded Files\Virtual-Com-2\Virtual-Com-2\Project\Virtual_COM_Port\RIDE\Libraries\STM32F10x_StdPeriph_Driver\src/stm32f10x_flash.c:1534
{
  FLASH_Status flashstatus = FLASH_COMPLETE;
  
  if((FLASH->SR & FLASH_FLAG_BSY) == FLASH_FLAG_BSY) 
  {
    flashstatus = FLASH_BUSY;
  22:	2001      	movs	r0, #1
  24:	4770      	bx	lr
C:\Downloaded Files\Virtual-Com-2\Virtual-Com-2\Project\Virtual_COM_Port\RIDE\Libraries\STM32F10x_StdPeriph_Driver\src/stm32f10x_flash.c:1540
  }
  else 
  {  
    if((FLASH->SR & FLASH_FLAG_PGERR) != 0)
    { 
      flashstatus = FLASH_ERROR_PG;
  26:	2002      	movs	r0, #2
C:\Downloaded Files\Virtual-Com-2\Virtual-Com-2\Project\Virtual_COM_Port\RIDE\Libraries\STM32F10x_StdPeriph_Driver\src/stm32f10x_flash.c:1556
      }
    }
  }
  /* Return the Flash Status */
  return flashstatus;
}
  28:	4770      	bx	lr
  2a:	bf00      	nop
  2c:	40022000 	.word	0x40022000

Disassembly of section .text.FLASH_GetBank1Status:

00000000 <FLASH_GetBank1Status>:
FLASH_GetBank1Status():
C:\Downloaded Files\Virtual-Com-2\Virtual-Com-2\Project\Virtual_COM_Port\RIDE\Libraries\STM32F10x_StdPeriph_Driver\src/stm32f10x_flash.c:1570
  */
FLASH_Status FLASH_GetBank1Status(void)
{
  FLASH_Status flashstatus = FLASH_COMPLETE;
  
  if((FLASH->SR & FLASH_FLAG_BANK1_BSY) == FLASH_FLAG_BSY) 
   0:	4b0a      	ldr	r3, [pc, #40]	; (2c <FLASH_GetBank1Status+0x2c>)
   2:	68da      	ldr	r2, [r3, #12]
   4:	f012 0f01 	tst.w	r2, #1
   8:	d10b      	bne.n	22 <FLASH_GetBank1Status+0x22>
C:\Downloaded Files\Virtual-Com-2\Virtual-Com-2\Project\Virtual_COM_Port\RIDE\Libraries\STM32F10x_StdPeriph_Driver\src/stm32f10x_flash.c:1576
  {
    flashstatus = FLASH_BUSY;
  }
  else 
  {  
    if((FLASH->SR & FLASH_FLAG_BANK1_PGERR) != 0)
   a:	68da      	ldr	r2, [r3, #12]
   c:	f012 0f04 	tst.w	r2, #4
  10:	d109      	bne.n	26 <FLASH_GetBank1Status+0x26>
C:\Downloaded Files\Virtual-Com-2\Virtual-Com-2\Project\Virtual_COM_Port\RIDE\Libraries\STM32F10x_StdPeriph_Driver\src/stm32f10x_flash.c:1582
    { 
      flashstatus = FLASH_ERROR_PG;
    }
    else 
    {
      if((FLASH->SR & FLASH_FLAG_BANK1_WRPRTERR) != 0 )
  12:	68d8      	ldr	r0, [r3, #12]
  14:	f000 0010 	and.w	r0, r0, #16
C:\Downloaded Files\Virtual-Com-2\Virtual-Com-2\Project\Virtual_COM_Port\RIDE\Libraries\STM32F10x_StdPeriph_Driver\src/stm32f10x_flash.c:1584
      {
        flashstatus = FLASH_ERROR_WRP;
  18:	2800      	cmp	r0, #0
  1a:	bf0c      	ite	eq
  1c:	2004      	moveq	r0, #4
  1e:	2003      	movne	r0, #3
  20:	4770      	bx	lr
C:\Downloaded Files\Virtual-Com-2\Virtual-Com-2\Project\Virtual_COM_Port\RIDE\Libraries\STM32F10x_StdPeriph_Driver\src/stm32f10x_flash.c:1572
{
  FLASH_Status flashstatus = FLASH_COMPLETE;
  
  if((FLASH->SR & FLASH_FLAG_BANK1_BSY) == FLASH_FLAG_BSY) 
  {
    flashstatus = FLASH_BUSY;
  22:	2001      	movs	r0, #1
  24:	4770      	bx	lr
C:\Downloaded Files\Virtual-Com-2\Virtual-Com-2\Project\Virtual_COM_Port\RIDE\Libraries\STM32F10x_StdPeriph_Driver\src/stm32f10x_flash.c:1578
  }
  else 
  {  
    if((FLASH->SR & FLASH_FLAG_BANK1_PGERR) != 0)
    { 
      flashstatus = FLASH_ERROR_PG;
  26:	2002      	movs	r0, #2
C:\Downloaded Files\Virtual-Com-2\Virtual-Com-2\Project\Virtual_COM_Port\RIDE\Libraries\STM32F10x_StdPeriph_Driver\src/stm32f10x_flash.c:1594
      }
    }
  }
  /* Return the Flash Status */
  return flashstatus;
}
  28:	4770      	bx	lr
  2a:	bf00      	nop
  2c:	40022000 	.word	0x40022000

Disassembly of section .text.FLASH_WaitForLastOperation:

00000000 <FLASH_WaitForLastOperation>:
FLASH_WaitForLastOperation():
C:\Downloaded Files\Virtual-Com-2\Virtual-Com-2\Project\Virtual_COM_Port\RIDE\Libraries\STM32F10x_StdPeriph_Driver\src/stm32f10x_flash.c:1647
  * @param  Timeout: FLASH progamming Timeout
  * @retval FLASH Status: The returned value can be: FLASH_ERROR_PG,
  *   FLASH_ERROR_WRP, FLASH_COMPLETE or FLASH_TIMEOUT.
  */
FLASH_Status FLASH_WaitForLastOperation(uint32_t Timeout)
{ 
   0:	b510      	push	{r4, lr}
   2:	4604      	mov	r4, r0
C:\Downloaded Files\Virtual-Com-2\Virtual-Com-2\Project\Virtual_COM_Port\RIDE\Libraries\STM32F10x_StdPeriph_Driver\src/stm32f10x_flash.c:1651
  FLASH_Status status = FLASH_COMPLETE;
   
  /* Check for the Flash Status */
  status = FLASH_GetBank1Status();
   4:	f7ff fffe 	bl	0 <FLASH_WaitForLastOperation>
C:\Downloaded Files\Virtual-Com-2\Virtual-Com-2\Project\Virtual_COM_Port\RIDE\Libraries\STM32F10x_StdPeriph_Driver\src/stm32f10x_flash.c:1653
  /* Wait for a Flash operation to complete or a TIMEOUT to occur */
  while((status == FLASH_BUSY) && (Timeout != 0x00))
   8:	2801      	cmp	r0, #1
   a:	d105      	bne.n	18 <FLASH_WaitForLastOperation+0x18>
   c:	e000      	b.n	10 <FLASH_WaitForLastOperation+0x10>
C:\Downloaded Files\Virtual-Com-2\Virtual-Com-2\Project\Virtual_COM_Port\RIDE\Libraries\STM32F10x_StdPeriph_Driver\src/stm32f10x_flash.c:1656
  {
    status = FLASH_GetBank1Status();
    Timeout--;
   e:	3c01      	subs	r4, #1
C:\Downloaded Files\Virtual-Com-2\Virtual-Com-2\Project\Virtual_COM_Port\RIDE\Libraries\STM32F10x_StdPeriph_Driver\src/stm32f10x_flash.c:1653
  FLASH_Status status = FLASH_COMPLETE;
   
  /* Check for the Flash Status */
  status = FLASH_GetBank1Status();
  /* Wait for a Flash operation to complete or a TIMEOUT to occur */
  while((status == FLASH_BUSY) && (Timeout != 0x00))
  10:	2c00      	cmp	r4, #0
  12:	d1fc      	bne.n	e <FLASH_WaitForLastOperation+0xe>
C:\Downloaded Files\Virtual-Com-2\Virtual-Com-2\Project\Virtual_COM_Port\RIDE\Libraries\STM32F10x_StdPeriph_Driver\src/stm32f10x_flash.c:1660
    status = FLASH_GetBank1Status();
    Timeout--;
  }
  if(Timeout == 0x00 )
  {
    status = FLASH_TIMEOUT;
  14:	2005      	movs	r0, #5
  16:	bd10      	pop	{r4, pc}
  18:	2c00      	cmp	r4, #0
  1a:	bf08      	it	eq
  1c:	2005      	moveq	r0, #5
C:\Downloaded Files\Virtual-Com-2\Virtual-Com-2\Project\Virtual_COM_Port\RIDE\Libraries\STM32F10x_StdPeriph_Driver\src/stm32f10x_flash.c:1664
  }
  /* Return the operation status */
  return status;
}
  1e:	bd10      	pop	{r4, pc}

Disassembly of section .text.FLASH_UserOptionByteConfig:

00000000 <FLASH_UserOptionByteConfig>:
FLASH_UserOptionByteConfig():
C:\Downloaded Files\Virtual-Com-2\Virtual-Com-2\Project\Virtual_COM_Port\RIDE\Libraries\STM32F10x_StdPeriph_Driver\src/stm32f10x_flash.c:1170
  *     @arg OB_STDBY_RST: Reset generated when entering in STANDBY
  * @retval FLASH Status: The returned value can be: FLASH_ERROR_PG, 
  * FLASH_ERROR_WRP, FLASH_COMPLETE or FLASH_TIMEOUT.
  */
FLASH_Status FLASH_UserOptionByteConfig(uint16_t OB_IWDG, uint16_t OB_STOP, uint16_t OB_STDBY)
{
   0:	b5f8      	push	{r3, r4, r5, r6, r7, lr}
C:\Downloaded Files\Virtual-Com-2\Virtual-Com-2\Project\Virtual_COM_Port\RIDE\Libraries\STM32F10x_StdPeriph_Driver\src/stm32f10x_flash.c:1179
  assert_param(IS_OB_IWDG_SOURCE(OB_IWDG));
  assert_param(IS_OB_STOP_SOURCE(OB_STOP));
  assert_param(IS_OB_STDBY_SOURCE(OB_STDBY));

  /* Authorize the small information block programming */
  FLASH->OPTKEYR = FLASH_KEY1;
   2:	4e12      	ldr	r6, [pc, #72]	; (4c <FLASH_UserOptionByteConfig+0x4c>)
   4:	4b12      	ldr	r3, [pc, #72]	; (50 <FLASH_UserOptionByteConfig+0x50>)
C:\Downloaded Files\Virtual-Com-2\Virtual-Com-2\Project\Virtual_COM_Port\RIDE\Libraries\STM32F10x_StdPeriph_Driver\src/stm32f10x_flash.c:1170
  *     @arg OB_STDBY_RST: Reset generated when entering in STANDBY
  * @retval FLASH Status: The returned value can be: FLASH_ERROR_PG, 
  * FLASH_ERROR_WRP, FLASH_COMPLETE or FLASH_TIMEOUT.
  */
FLASH_Status FLASH_UserOptionByteConfig(uint16_t OB_IWDG, uint16_t OB_STOP, uint16_t OB_STDBY)
{
   6:	4604      	mov	r4, r0
C:\Downloaded Files\Virtual-Com-2\Virtual-Com-2\Project\Virtual_COM_Port\RIDE\Libraries\STM32F10x_StdPeriph_Driver\src/stm32f10x_flash.c:1179
  assert_param(IS_OB_IWDG_SOURCE(OB_IWDG));
  assert_param(IS_OB_STOP_SOURCE(OB_STOP));
  assert_param(IS_OB_STDBY_SOURCE(OB_STDBY));

  /* Authorize the small information block programming */
  FLASH->OPTKEYR = FLASH_KEY1;
   8:	60b3      	str	r3, [r6, #8]
C:\Downloaded Files\Virtual-Com-2\Virtual-Com-2\Project\Virtual_COM_Port\RIDE\Libraries\STM32F10x_StdPeriph_Driver\src/stm32f10x_flash.c:1180
  FLASH->OPTKEYR = FLASH_KEY2;
   a:	4b12      	ldr	r3, [pc, #72]	; (54 <FLASH_UserOptionByteConfig+0x54>)
C:\Downloaded Files\Virtual-Com-2\Virtual-Com-2\Project\Virtual_COM_Port\RIDE\Libraries\STM32F10x_StdPeriph_Driver\src/stm32f10x_flash.c:1183
  
  /* Wait for last operation to be completed */
  status = FLASH_WaitForLastOperation(ProgramTimeout);
   c:	f44f 5000 	mov.w	r0, #8192	; 0x2000
C:\Downloaded Files\Virtual-Com-2\Virtual-Com-2\Project\Virtual_COM_Port\RIDE\Libraries\STM32F10x_StdPeriph_Driver\src/stm32f10x_flash.c:1180
  assert_param(IS_OB_STOP_SOURCE(OB_STOP));
  assert_param(IS_OB_STDBY_SOURCE(OB_STDBY));

  /* Authorize the small information block programming */
  FLASH->OPTKEYR = FLASH_KEY1;
  FLASH->OPTKEYR = FLASH_KEY2;
  10:	60b3      	str	r3, [r6, #8]
C:\Downloaded Files\Virtual-Com-2\Virtual-Com-2\Project\Virtual_COM_Port\RIDE\Libraries\STM32F10x_StdPeriph_Driver\src/stm32f10x_flash.c:1170
  *     @arg OB_STDBY_RST: Reset generated when entering in STANDBY
  * @retval FLASH Status: The returned value can be: FLASH_ERROR_PG, 
  * FLASH_ERROR_WRP, FLASH_COMPLETE or FLASH_TIMEOUT.
  */
FLASH_Status FLASH_UserOptionByteConfig(uint16_t OB_IWDG, uint16_t OB_STOP, uint16_t OB_STDBY)
{
  12:	460d      	mov	r5, r1
  14:	4617      	mov	r7, r2
C:\Downloaded Files\Virtual-Com-2\Virtual-Com-2\Project\Virtual_COM_Port\RIDE\Libraries\STM32F10x_StdPeriph_Driver\src/stm32f10x_flash.c:1183
  /* Authorize the small information block programming */
  FLASH->OPTKEYR = FLASH_KEY1;
  FLASH->OPTKEYR = FLASH_KEY2;
  
  /* Wait for last operation to be completed */
  status = FLASH_WaitForLastOperation(ProgramTimeout);
  16:	f7ff fffe 	bl	0 <FLASH_UserOptionByteConfig>
C:\Downloaded Files\Virtual-Com-2\Virtual-Com-2\Project\Virtual_COM_Port\RIDE\Libraries\STM32F10x_StdPeriph_Driver\src/stm32f10x_flash.c:1185
  
  if(status == FLASH_COMPLETE)
  1a:	2804      	cmp	r0, #4
  1c:	d115      	bne.n	4a <FLASH_UserOptionByteConfig+0x4a>
C:\Downloaded Files\Virtual-Com-2\Virtual-Com-2\Project\Virtual_COM_Port\RIDE\Libraries\STM32F10x_StdPeriph_Driver\src/stm32f10x_flash.c:1188
  {  
    /* Enable the Option Bytes Programming operation */
    FLASH->CR |= CR_OPTPG_Set; 
  1e:	6933      	ldr	r3, [r6, #16]
C:\Downloaded Files\Virtual-Com-2\Virtual-Com-2\Project\Virtual_COM_Port\RIDE\Libraries\STM32F10x_StdPeriph_Driver\src/stm32f10x_flash.c:1190
           
    OB->USER = OB_IWDG | (uint16_t)(OB_STOP | (uint16_t)(OB_STDBY | ((uint16_t)0xF8))); 
  20:	f044 04f8 	orr.w	r4, r4, #248	; 0xf8
C:\Downloaded Files\Virtual-Com-2\Virtual-Com-2\Project\Virtual_COM_Port\RIDE\Libraries\STM32F10x_StdPeriph_Driver\src/stm32f10x_flash.c:1188
  status = FLASH_WaitForLastOperation(ProgramTimeout);
  
  if(status == FLASH_COMPLETE)
  {  
    /* Enable the Option Bytes Programming operation */
    FLASH->CR |= CR_OPTPG_Set; 
  24:	f043 0310 	orr.w	r3, r3, #16
  28:	6133      	str	r3, [r6, #16]
C:\Downloaded Files\Virtual-Com-2\Virtual-Com-2\Project\Virtual_COM_Port\RIDE\Libraries\STM32F10x_StdPeriph_Driver\src/stm32f10x_flash.c:1190
           
    OB->USER = OB_IWDG | (uint16_t)(OB_STOP | (uint16_t)(OB_STDBY | ((uint16_t)0xF8))); 
  2a:	4325      	orrs	r5, r4
  2c:	4b0a      	ldr	r3, [pc, #40]	; (58 <FLASH_UserOptionByteConfig+0x58>)
  2e:	432f      	orrs	r7, r5
  30:	805f      	strh	r7, [r3, #2]
C:\Downloaded Files\Virtual-Com-2\Virtual-Com-2\Project\Virtual_COM_Port\RIDE\Libraries\STM32F10x_StdPeriph_Driver\src/stm32f10x_flash.c:1193
  
    /* Wait for last operation to be completed */
    status = FLASH_WaitForLastOperation(ProgramTimeout);
  32:	f44f 5000 	mov.w	r0, #8192	; 0x2000
  36:	f7ff fffe 	bl	0 <FLASH_UserOptionByteConfig>
C:\Downloaded Files\Virtual-Com-2\Virtual-Com-2\Project\Virtual_COM_Port\RIDE\Libraries\STM32F10x_StdPeriph_Driver\src/stm32f10x_flash.c:1194
    if(status != FLASH_TIMEOUT)
  3a:	2805      	cmp	r0, #5
  3c:	d005      	beq.n	4a <FLASH_UserOptionByteConfig+0x4a>
C:\Downloaded Files\Virtual-Com-2\Virtual-Com-2\Project\Virtual_COM_Port\RIDE\Libraries\STM32F10x_StdPeriph_Driver\src/stm32f10x_flash.c:1197
    {
      /* if the program operation is completed, disable the OPTPG Bit */
      FLASH->CR &= CR_OPTPG_Reset;
  3e:	6932      	ldr	r2, [r6, #16]
  40:	f641 73ef 	movw	r3, #8175	; 0x1fef
  44:	ea02 0303 	and.w	r3, r2, r3
  48:	6133      	str	r3, [r6, #16]
C:\Downloaded Files\Virtual-Com-2\Virtual-Com-2\Project\Virtual_COM_Port\RIDE\Libraries\STM32F10x_StdPeriph_Driver\src/stm32f10x_flash.c:1202
    }
  }    
  /* Return the Option Byte program Status */
  return status;
}
  4a:	bdf8      	pop	{r3, r4, r5, r6, r7, pc}
  4c:	40022000 	.word	0x40022000
  50:	45670123 	.word	0x45670123
  54:	cdef89ab 	.word	0xcdef89ab
  58:	1ffff800 	.word	0x1ffff800

Disassembly of section .text.FLASH_ReadOutProtection:

00000000 <FLASH_ReadOutProtection>:
FLASH_ReadOutProtection():
C:\Downloaded Files\Virtual-Com-2\Virtual-Com-2\Project\Virtual_COM_Port\RIDE\Libraries\STM32F10x_StdPeriph_Driver\src/stm32f10x_flash.c:1101
  *   This parameter can be: ENABLE or DISABLE.
  * @retval FLASH Status: The returned value can be: FLASH_ERROR_PG,
  *   FLASH_ERROR_WRP, FLASH_COMPLETE or FLASH_TIMEOUT.
  */
FLASH_Status FLASH_ReadOutProtection(FunctionalState NewState)
{
   0:	b538      	push	{r3, r4, r5, lr}
   2:	4605      	mov	r5, r0
C:\Downloaded Files\Virtual-Com-2\Virtual-Com-2\Project\Virtual_COM_Port\RIDE\Libraries\STM32F10x_StdPeriph_Driver\src/stm32f10x_flash.c:1105
  FLASH_Status status = FLASH_COMPLETE;
  /* Check the parameters */
  assert_param(IS_FUNCTIONAL_STATE(NewState));
  status = FLASH_WaitForLastOperation(EraseTimeout);
   4:	f44f 2030 	mov.w	r0, #720896	; 0xb0000
   8:	f7ff fffe 	bl	0 <FLASH_ReadOutProtection>
C:\Downloaded Files\Virtual-Com-2\Virtual-Com-2\Project\Virtual_COM_Port\RIDE\Libraries\STM32F10x_StdPeriph_Driver\src/stm32f10x_flash.c:1106
  if(status == FLASH_COMPLETE)
   c:	2804      	cmp	r0, #4
   e:	d138      	bne.n	82 <FLASH_ReadOutProtection+0x82>
C:\Downloaded Files\Virtual-Com-2\Virtual-Com-2\Project\Virtual_COM_Port\RIDE\Libraries\STM32F10x_StdPeriph_Driver\src/stm32f10x_flash.c:1109
  {
    /* Authorizes the small information block programming */
    FLASH->OPTKEYR = FLASH_KEY1;
  10:	4c1c      	ldr	r4, [pc, #112]	; (84 <FLASH_ReadOutProtection+0x84>)
  12:	4b1d      	ldr	r3, [pc, #116]	; (88 <FLASH_ReadOutProtection+0x88>)
C:\Downloaded Files\Virtual-Com-2\Virtual-Com-2\Project\Virtual_COM_Port\RIDE\Libraries\STM32F10x_StdPeriph_Driver\src/stm32f10x_flash.c:1114
    FLASH->OPTKEYR = FLASH_KEY2;
    FLASH->CR |= CR_OPTER_Set;
    FLASH->CR |= CR_STRT_Set;
    /* Wait for last operation to be completed */
    status = FLASH_WaitForLastOperation(EraseTimeout);
  14:	f44f 2030 	mov.w	r0, #720896	; 0xb0000
C:\Downloaded Files\Virtual-Com-2\Virtual-Com-2\Project\Virtual_COM_Port\RIDE\Libraries\STM32F10x_StdPeriph_Driver\src/stm32f10x_flash.c:1109
  assert_param(IS_FUNCTIONAL_STATE(NewState));
  status = FLASH_WaitForLastOperation(EraseTimeout);
  if(status == FLASH_COMPLETE)
  {
    /* Authorizes the small information block programming */
    FLASH->OPTKEYR = FLASH_KEY1;
  18:	60a3      	str	r3, [r4, #8]
C:\Downloaded Files\Virtual-Com-2\Virtual-Com-2\Project\Virtual_COM_Port\RIDE\Libraries\STM32F10x_StdPeriph_Driver\src/stm32f10x_flash.c:1110
    FLASH->OPTKEYR = FLASH_KEY2;
  1a:	4b1c      	ldr	r3, [pc, #112]	; (8c <FLASH_ReadOutProtection+0x8c>)
  1c:	60a3      	str	r3, [r4, #8]
C:\Downloaded Files\Virtual-Com-2\Virtual-Com-2\Project\Virtual_COM_Port\RIDE\Libraries\STM32F10x_StdPeriph_Driver\src/stm32f10x_flash.c:1111
    FLASH->CR |= CR_OPTER_Set;
  1e:	6923      	ldr	r3, [r4, #16]
  20:	f043 0320 	orr.w	r3, r3, #32
  24:	6123      	str	r3, [r4, #16]
C:\Downloaded Files\Virtual-Com-2\Virtual-Com-2\Project\Virtual_COM_Port\RIDE\Libraries\STM32F10x_StdPeriph_Driver\src/stm32f10x_flash.c:1112
    FLASH->CR |= CR_STRT_Set;
  26:	6923      	ldr	r3, [r4, #16]
  28:	f043 0340 	orr.w	r3, r3, #64	; 0x40
  2c:	6123      	str	r3, [r4, #16]
C:\Downloaded Files\Virtual-Com-2\Virtual-Com-2\Project\Virtual_COM_Port\RIDE\Libraries\STM32F10x_StdPeriph_Driver\src/stm32f10x_flash.c:1114
    /* Wait for last operation to be completed */
    status = FLASH_WaitForLastOperation(EraseTimeout);
  2e:	f7ff fffe 	bl	0 <FLASH_ReadOutProtection>
C:\Downloaded Files\Virtual-Com-2\Virtual-Com-2\Project\Virtual_COM_Port\RIDE\Libraries\STM32F10x_StdPeriph_Driver\src/stm32f10x_flash.c:1115
    if(status == FLASH_COMPLETE)
  32:	2804      	cmp	r0, #4
  34:	d11d      	bne.n	72 <FLASH_ReadOutProtection+0x72>
C:\Downloaded Files\Virtual-Com-2\Virtual-Com-2\Project\Virtual_COM_Port\RIDE\Libraries\STM32F10x_StdPeriph_Driver\src/stm32f10x_flash.c:1118
    {
      /* if the erase operation is completed, disable the OPTER Bit */
      FLASH->CR &= CR_OPTER_Reset;
  36:	6922      	ldr	r2, [r4, #16]
  38:	f641 73df 	movw	r3, #8159	; 0x1fdf
  3c:	ea02 0303 	and.w	r3, r2, r3
  40:	6123      	str	r3, [r4, #16]
C:\Downloaded Files\Virtual-Com-2\Virtual-Com-2\Project\Virtual_COM_Port\RIDE\Libraries\STM32F10x_StdPeriph_Driver\src/stm32f10x_flash.c:1120
      /* Enable the Option Bytes Programming operation */
      FLASH->CR |= CR_OPTPG_Set; 
  42:	6923      	ldr	r3, [r4, #16]
  44:	f043 0310 	orr.w	r3, r3, #16
  48:	6123      	str	r3, [r4, #16]
  4a:	4b11      	ldr	r3, [pc, #68]	; (90 <FLASH_ReadOutProtection+0x90>)
C:\Downloaded Files\Virtual-Com-2\Virtual-Com-2\Project\Virtual_COM_Port\RIDE\Libraries\STM32F10x_StdPeriph_Driver\src/stm32f10x_flash.c:1121
      if(NewState != DISABLE)
  4c:	b10d      	cbz	r5, 52 <FLASH_ReadOutProtection+0x52>
C:\Downloaded Files\Virtual-Com-2\Virtual-Com-2\Project\Virtual_COM_Port\RIDE\Libraries\STM32F10x_StdPeriph_Driver\src/stm32f10x_flash.c:1123
      {
        OB->RDP = 0x00;
  4e:	2200      	movs	r2, #0
  50:	e000      	b.n	54 <FLASH_ReadOutProtection+0x54>
C:\Downloaded Files\Virtual-Com-2\Virtual-Com-2\Project\Virtual_COM_Port\RIDE\Libraries\STM32F10x_StdPeriph_Driver\src/stm32f10x_flash.c:1127
      }
      else
      {
        OB->RDP = RDP_Key;  
  52:	22a5      	movs	r2, #165	; 0xa5
  54:	801a      	strh	r2, [r3, #0]
C:\Downloaded Files\Virtual-Com-2\Virtual-Com-2\Project\Virtual_COM_Port\RIDE\Libraries\STM32F10x_StdPeriph_Driver\src/stm32f10x_flash.c:1130
      }
      /* Wait for last operation to be completed */
      status = FLASH_WaitForLastOperation(EraseTimeout); 
  56:	f44f 2030 	mov.w	r0, #720896	; 0xb0000
  5a:	f7ff fffe 	bl	0 <FLASH_ReadOutProtection>
C:\Downloaded Files\Virtual-Com-2\Virtual-Com-2\Project\Virtual_COM_Port\RIDE\Libraries\STM32F10x_StdPeriph_Driver\src/stm32f10x_flash.c:1132
    
      if(status != FLASH_TIMEOUT)
  5e:	2805      	cmp	r0, #5
  60:	d00f      	beq.n	82 <FLASH_ReadOutProtection+0x82>
C:\Downloaded Files\Virtual-Com-2\Virtual-Com-2\Project\Virtual_COM_Port\RIDE\Libraries\STM32F10x_StdPeriph_Driver\src/stm32f10x_flash.c:1135
      {
        /* if the program operation is completed, disable the OPTPG Bit */
        FLASH->CR &= CR_OPTPG_Reset;
  62:	4a08      	ldr	r2, [pc, #32]	; (84 <FLASH_ReadOutProtection+0x84>)
  64:	f641 73ef 	movw	r3, #8175	; 0x1fef
  68:	6911      	ldr	r1, [r2, #16]
  6a:	ea01 0303 	and.w	r3, r1, r3
  6e:	6113      	str	r3, [r2, #16]
  70:	bd38      	pop	{r3, r4, r5, pc}
C:\Downloaded Files\Virtual-Com-2\Virtual-Com-2\Project\Virtual_COM_Port\RIDE\Libraries\STM32F10x_StdPeriph_Driver\src/stm32f10x_flash.c:1140
      }
    }
    else 
    {
      if(status != FLASH_TIMEOUT)
  72:	2805      	cmp	r0, #5
  74:	d005      	beq.n	82 <FLASH_ReadOutProtection+0x82>
C:\Downloaded Files\Virtual-Com-2\Virtual-Com-2\Project\Virtual_COM_Port\RIDE\Libraries\STM32F10x_StdPeriph_Driver\src/stm32f10x_flash.c:1143
      {
        /* Disable the OPTER Bit */
        FLASH->CR &= CR_OPTER_Reset;
  76:	6922      	ldr	r2, [r4, #16]
  78:	f641 73df 	movw	r3, #8159	; 0x1fdf
  7c:	ea02 0303 	and.w	r3, r2, r3
  80:	6123      	str	r3, [r4, #16]
C:\Downloaded Files\Virtual-Com-2\Virtual-Com-2\Project\Virtual_COM_Port\RIDE\Libraries\STM32F10x_StdPeriph_Driver\src/stm32f10x_flash.c:1149
      }
    }
  }
  /* Return the protection operation Status */
  return status;       
}
  82:	bd38      	pop	{r3, r4, r5, pc}
  84:	40022000 	.word	0x40022000
  88:	45670123 	.word	0x45670123
  8c:	cdef89ab 	.word	0xcdef89ab
  90:	1ffff800 	.word	0x1ffff800

Disassembly of section .text.FLASH_EnableWriteProtection:

00000000 <FLASH_EnableWriteProtection>:
FLASH_EnableWriteProtection():
C:\Downloaded Files\Virtual-Com-2\Virtual-Com-2\Project\Virtual_COM_Port\RIDE\Libraries\STM32F10x_StdPeriph_Driver\src/stm32f10x_flash.c:1027
  *     @arg FLASH_WRProt_AllPages
  * @retval FLASH Status: The returned value can be: FLASH_ERROR_PG,
  *   FLASH_ERROR_WRP, FLASH_COMPLETE or FLASH_TIMEOUT.
  */
FLASH_Status FLASH_EnableWriteProtection(uint32_t FLASH_Pages)
{
   0:	b510      	push	{r4, lr}
   2:	4604      	mov	r4, r0
C:\Downloaded Files\Virtual-Com-2\Virtual-Com-2\Project\Virtual_COM_Port\RIDE\Libraries\STM32F10x_StdPeriph_Driver\src/stm32f10x_flash.c:1042
  WRP1_Data = (uint16_t)((FLASH_Pages & WRP1_Mask) >> 8);
  WRP2_Data = (uint16_t)((FLASH_Pages & WRP2_Mask) >> 16);
  WRP3_Data = (uint16_t)((FLASH_Pages & WRP3_Mask) >> 24);
  
  /* Wait for last operation to be completed */
  status = FLASH_WaitForLastOperation(ProgramTimeout);
   4:	f44f 5000 	mov.w	r0, #8192	; 0x2000
   8:	f7ff fffe 	bl	0 <FLASH_EnableWriteProtection>
C:\Downloaded Files\Virtual-Com-2\Virtual-Com-2\Project\Virtual_COM_Port\RIDE\Libraries\STM32F10x_StdPeriph_Driver\src/stm32f10x_flash.c:1044
  
  if(status == FLASH_COMPLETE)
   c:	2804      	cmp	r0, #4
   e:	d142      	bne.n	96 <FLASH_EnableWriteProtection+0x96>
C:\Downloaded Files\Virtual-Com-2\Virtual-Com-2\Project\Virtual_COM_Port\RIDE\Libraries\STM32F10x_StdPeriph_Driver\src/stm32f10x_flash.c:1047
  {
    /* Authorizes the small information block programming */
    FLASH->OPTKEYR = FLASH_KEY1;
  10:	4b21      	ldr	r3, [pc, #132]	; (98 <FLASH_EnableWriteProtection+0x98>)
  12:	4922      	ldr	r1, [pc, #136]	; (9c <FLASH_EnableWriteProtection+0x9c>)
C:\Downloaded Files\Virtual-Com-2\Virtual-Com-2\Project\Virtual_COM_Port\RIDE\Libraries\STM32F10x_StdPeriph_Driver\src/stm32f10x_flash.c:1035
  FLASH_Status status = FLASH_COMPLETE;
  
  /* Check the parameters */
  assert_param(IS_FLASH_WRPROT_PAGE(FLASH_Pages));
  
  FLASH_Pages = (uint32_t)(~FLASH_Pages);
  14:	43e4      	mvns	r4, r4
C:\Downloaded Files\Virtual-Com-2\Virtual-Com-2\Project\Virtual_COM_Port\RIDE\Libraries\STM32F10x_StdPeriph_Driver\src/stm32f10x_flash.c:1047
  status = FLASH_WaitForLastOperation(ProgramTimeout);
  
  if(status == FLASH_COMPLETE)
  {
    /* Authorizes the small information block programming */
    FLASH->OPTKEYR = FLASH_KEY1;
  16:	6099      	str	r1, [r3, #8]
C:\Downloaded Files\Virtual-Com-2\Virtual-Com-2\Project\Virtual_COM_Port\RIDE\Libraries\STM32F10x_StdPeriph_Driver\src/stm32f10x_flash.c:1048
    FLASH->OPTKEYR = FLASH_KEY2;
  18:	4921      	ldr	r1, [pc, #132]	; (a0 <FLASH_EnableWriteProtection+0xa0>)
C:\Downloaded Files\Virtual-Com-2\Virtual-Com-2\Project\Virtual_COM_Port\RIDE\Libraries\STM32F10x_StdPeriph_Driver\src/stm32f10x_flash.c:1036
  
  /* Check the parameters */
  assert_param(IS_FLASH_WRPROT_PAGE(FLASH_Pages));
  
  FLASH_Pages = (uint32_t)(~FLASH_Pages);
  WRP0_Data = (uint16_t)(FLASH_Pages & WRP0_Mask);
  1a:	b2e2      	uxtb	r2, r4
C:\Downloaded Files\Virtual-Com-2\Virtual-Com-2\Project\Virtual_COM_Port\RIDE\Libraries\STM32F10x_StdPeriph_Driver\src/stm32f10x_flash.c:1048
  
  if(status == FLASH_COMPLETE)
  {
    /* Authorizes the small information block programming */
    FLASH->OPTKEYR = FLASH_KEY1;
    FLASH->OPTKEYR = FLASH_KEY2;
  1c:	6099      	str	r1, [r3, #8]
C:\Downloaded Files\Virtual-Com-2\Virtual-Com-2\Project\Virtual_COM_Port\RIDE\Libraries\STM32F10x_StdPeriph_Driver\src/stm32f10x_flash.c:1049
    FLASH->CR |= CR_OPTPG_Set;
  1e:	6919      	ldr	r1, [r3, #16]
C:\Downloaded Files\Virtual-Com-2\Virtual-Com-2\Project\Virtual_COM_Port\RIDE\Libraries\STM32F10x_StdPeriph_Driver\src/stm32f10x_flash.c:1050
    if(WRP0_Data != 0xFF)
  20:	2aff      	cmp	r2, #255	; 0xff
C:\Downloaded Files\Virtual-Com-2\Virtual-Com-2\Project\Virtual_COM_Port\RIDE\Libraries\STM32F10x_StdPeriph_Driver\src/stm32f10x_flash.c:1049
  if(status == FLASH_COMPLETE)
  {
    /* Authorizes the small information block programming */
    FLASH->OPTKEYR = FLASH_KEY1;
    FLASH->OPTKEYR = FLASH_KEY2;
    FLASH->CR |= CR_OPTPG_Set;
  22:	f041 0110 	orr.w	r1, r1, #16
  26:	6119      	str	r1, [r3, #16]
C:\Downloaded Files\Virtual-Com-2\Virtual-Com-2\Project\Virtual_COM_Port\RIDE\Libraries\STM32F10x_StdPeriph_Driver\src/stm32f10x_flash.c:1050
    if(WRP0_Data != 0xFF)
  28:	d007      	beq.n	3a <FLASH_EnableWriteProtection+0x3a>
C:\Downloaded Files\Virtual-Com-2\Virtual-Com-2\Project\Virtual_COM_Port\RIDE\Libraries\STM32F10x_StdPeriph_Driver\src/stm32f10x_flash.c:1052
    {
      OB->WRP0 = WRP0_Data;
  2a:	4b1e      	ldr	r3, [pc, #120]	; (a4 <FLASH_EnableWriteProtection+0xa4>)
C:\Downloaded Files\Virtual-Com-2\Virtual-Com-2\Project\Virtual_COM_Port\RIDE\Libraries\STM32F10x_StdPeriph_Driver\src/stm32f10x_flash.c:1055
      
      /* Wait for last operation to be completed */
      status = FLASH_WaitForLastOperation(ProgramTimeout);
  2c:	f44f 5000 	mov.w	r0, #8192	; 0x2000
C:\Downloaded Files\Virtual-Com-2\Virtual-Com-2\Project\Virtual_COM_Port\RIDE\Libraries\STM32F10x_StdPeriph_Driver\src/stm32f10x_flash.c:1052
    FLASH->OPTKEYR = FLASH_KEY1;
    FLASH->OPTKEYR = FLASH_KEY2;
    FLASH->CR |= CR_OPTPG_Set;
    if(WRP0_Data != 0xFF)
    {
      OB->WRP0 = WRP0_Data;
  30:	811a      	strh	r2, [r3, #8]
C:\Downloaded Files\Virtual-Com-2\Virtual-Com-2\Project\Virtual_COM_Port\RIDE\Libraries\STM32F10x_StdPeriph_Driver\src/stm32f10x_flash.c:1055
      
      /* Wait for last operation to be completed */
      status = FLASH_WaitForLastOperation(ProgramTimeout);
  32:	f7ff fffe 	bl	0 <FLASH_EnableWriteProtection>
C:\Downloaded Files\Virtual-Com-2\Virtual-Com-2\Project\Virtual_COM_Port\RIDE\Libraries\STM32F10x_StdPeriph_Driver\src/stm32f10x_flash.c:1057
    }
    if((status == FLASH_COMPLETE) && (WRP1_Data != 0xFF))
  36:	2804      	cmp	r0, #4
  38:	d122      	bne.n	80 <FLASH_EnableWriteProtection+0x80>
C:\Downloaded Files\Virtual-Com-2\Virtual-Com-2\Project\Virtual_COM_Port\RIDE\Libraries\STM32F10x_StdPeriph_Driver\src/stm32f10x_flash.c:1037
  /* Check the parameters */
  assert_param(IS_FLASH_WRPROT_PAGE(FLASH_Pages));
  
  FLASH_Pages = (uint32_t)(~FLASH_Pages);
  WRP0_Data = (uint16_t)(FLASH_Pages & WRP0_Mask);
  WRP1_Data = (uint16_t)((FLASH_Pages & WRP1_Mask) >> 8);
  3a:	f404 437f 	and.w	r3, r4, #65280	; 0xff00
  3e:	0a1b      	lsrs	r3, r3, #8
C:\Downloaded Files\Virtual-Com-2\Virtual-Com-2\Project\Virtual_COM_Port\RIDE\Libraries\STM32F10x_StdPeriph_Driver\src/stm32f10x_flash.c:1057
      OB->WRP0 = WRP0_Data;
      
      /* Wait for last operation to be completed */
      status = FLASH_WaitForLastOperation(ProgramTimeout);
    }
    if((status == FLASH_COMPLETE) && (WRP1_Data != 0xFF))
  40:	2bff      	cmp	r3, #255	; 0xff
  42:	d007      	beq.n	54 <FLASH_EnableWriteProtection+0x54>
C:\Downloaded Files\Virtual-Com-2\Virtual-Com-2\Project\Virtual_COM_Port\RIDE\Libraries\STM32F10x_StdPeriph_Driver\src/stm32f10x_flash.c:1059
    {
      OB->WRP1 = WRP1_Data;
  44:	4a17      	ldr	r2, [pc, #92]	; (a4 <FLASH_EnableWriteProtection+0xa4>)
C:\Downloaded Files\Virtual-Com-2\Virtual-Com-2\Project\Virtual_COM_Port\RIDE\Libraries\STM32F10x_StdPeriph_Driver\src/stm32f10x_flash.c:1062
      
      /* Wait for last operation to be completed */
      status = FLASH_WaitForLastOperation(ProgramTimeout);
  46:	f44f 5000 	mov.w	r0, #8192	; 0x2000
C:\Downloaded Files\Virtual-Com-2\Virtual-Com-2\Project\Virtual_COM_Port\RIDE\Libraries\STM32F10x_StdPeriph_Driver\src/stm32f10x_flash.c:1059
      /* Wait for last operation to be completed */
      status = FLASH_WaitForLastOperation(ProgramTimeout);
    }
    if((status == FLASH_COMPLETE) && (WRP1_Data != 0xFF))
    {
      OB->WRP1 = WRP1_Data;
  4a:	8153      	strh	r3, [r2, #10]
C:\Downloaded Files\Virtual-Com-2\Virtual-Com-2\Project\Virtual_COM_Port\RIDE\Libraries\STM32F10x_StdPeriph_Driver\src/stm32f10x_flash.c:1062
      
      /* Wait for last operation to be completed */
      status = FLASH_WaitForLastOperation(ProgramTimeout);
  4c:	f7ff fffe 	bl	0 <FLASH_EnableWriteProtection>
C:\Downloaded Files\Virtual-Com-2\Virtual-Com-2\Project\Virtual_COM_Port\RIDE\Libraries\STM32F10x_StdPeriph_Driver\src/stm32f10x_flash.c:1064
    }
    if((status == FLASH_COMPLETE) && (WRP2_Data != 0xFF))
  50:	2804      	cmp	r0, #4
  52:	d115      	bne.n	80 <FLASH_EnableWriteProtection+0x80>
C:\Downloaded Files\Virtual-Com-2\Virtual-Com-2\Project\Virtual_COM_Port\RIDE\Libraries\STM32F10x_StdPeriph_Driver\src/stm32f10x_flash.c:1038
  assert_param(IS_FLASH_WRPROT_PAGE(FLASH_Pages));
  
  FLASH_Pages = (uint32_t)(~FLASH_Pages);
  WRP0_Data = (uint16_t)(FLASH_Pages & WRP0_Mask);
  WRP1_Data = (uint16_t)((FLASH_Pages & WRP1_Mask) >> 8);
  WRP2_Data = (uint16_t)((FLASH_Pages & WRP2_Mask) >> 16);
  54:	f404 037f 	and.w	r3, r4, #16711680	; 0xff0000
  58:	0c1b      	lsrs	r3, r3, #16
C:\Downloaded Files\Virtual-Com-2\Virtual-Com-2\Project\Virtual_COM_Port\RIDE\Libraries\STM32F10x_StdPeriph_Driver\src/stm32f10x_flash.c:1064
      OB->WRP1 = WRP1_Data;
      
      /* Wait for last operation to be completed */
      status = FLASH_WaitForLastOperation(ProgramTimeout);
    }
    if((status == FLASH_COMPLETE) && (WRP2_Data != 0xFF))
  5a:	2bff      	cmp	r3, #255	; 0xff
  5c:	d007      	beq.n	6e <FLASH_EnableWriteProtection+0x6e>
C:\Downloaded Files\Virtual-Com-2\Virtual-Com-2\Project\Virtual_COM_Port\RIDE\Libraries\STM32F10x_StdPeriph_Driver\src/stm32f10x_flash.c:1066
    {
      OB->WRP2 = WRP2_Data;
  5e:	4a11      	ldr	r2, [pc, #68]	; (a4 <FLASH_EnableWriteProtection+0xa4>)
C:\Downloaded Files\Virtual-Com-2\Virtual-Com-2\Project\Virtual_COM_Port\RIDE\Libraries\STM32F10x_StdPeriph_Driver\src/stm32f10x_flash.c:1069
      
      /* Wait for last operation to be completed */
      status = FLASH_WaitForLastOperation(ProgramTimeout);
  60:	f44f 5000 	mov.w	r0, #8192	; 0x2000
C:\Downloaded Files\Virtual-Com-2\Virtual-Com-2\Project\Virtual_COM_Port\RIDE\Libraries\STM32F10x_StdPeriph_Driver\src/stm32f10x_flash.c:1066
      /* Wait for last operation to be completed */
      status = FLASH_WaitForLastOperation(ProgramTimeout);
    }
    if((status == FLASH_COMPLETE) && (WRP2_Data != 0xFF))
    {
      OB->WRP2 = WRP2_Data;
  64:	8193      	strh	r3, [r2, #12]
C:\Downloaded Files\Virtual-Com-2\Virtual-Com-2\Project\Virtual_COM_Port\RIDE\Libraries\STM32F10x_StdPeriph_Driver\src/stm32f10x_flash.c:1069
      
      /* Wait for last operation to be completed */
      status = FLASH_WaitForLastOperation(ProgramTimeout);
  66:	f7ff fffe 	bl	0 <FLASH_EnableWriteProtection>
C:\Downloaded Files\Virtual-Com-2\Virtual-Com-2\Project\Virtual_COM_Port\RIDE\Libraries\STM32F10x_StdPeriph_Driver\src/stm32f10x_flash.c:1072
    }
    
    if((status == FLASH_COMPLETE)&& (WRP3_Data != 0xFF))
  6a:	2804      	cmp	r0, #4
  6c:	d108      	bne.n	80 <FLASH_EnableWriteProtection+0x80>
C:\Downloaded Files\Virtual-Com-2\Virtual-Com-2\Project\Virtual_COM_Port\RIDE\Libraries\STM32F10x_StdPeriph_Driver\src/stm32f10x_flash.c:1039
  
  FLASH_Pages = (uint32_t)(~FLASH_Pages);
  WRP0_Data = (uint16_t)(FLASH_Pages & WRP0_Mask);
  WRP1_Data = (uint16_t)((FLASH_Pages & WRP1_Mask) >> 8);
  WRP2_Data = (uint16_t)((FLASH_Pages & WRP2_Mask) >> 16);
  WRP3_Data = (uint16_t)((FLASH_Pages & WRP3_Mask) >> 24);
  6e:	0e24      	lsrs	r4, r4, #24
C:\Downloaded Files\Virtual-Com-2\Virtual-Com-2\Project\Virtual_COM_Port\RIDE\Libraries\STM32F10x_StdPeriph_Driver\src/stm32f10x_flash.c:1072
      
      /* Wait for last operation to be completed */
      status = FLASH_WaitForLastOperation(ProgramTimeout);
    }
    
    if((status == FLASH_COMPLETE)&& (WRP3_Data != 0xFF))
  70:	2cff      	cmp	r4, #255	; 0xff
  72:	d008      	beq.n	86 <FLASH_EnableWriteProtection+0x86>
C:\Downloaded Files\Virtual-Com-2\Virtual-Com-2\Project\Virtual_COM_Port\RIDE\Libraries\STM32F10x_StdPeriph_Driver\src/stm32f10x_flash.c:1074
    {
      OB->WRP3 = WRP3_Data;
  74:	4b0b      	ldr	r3, [pc, #44]	; (a4 <FLASH_EnableWriteProtection+0xa4>)
C:\Downloaded Files\Virtual-Com-2\Virtual-Com-2\Project\Virtual_COM_Port\RIDE\Libraries\STM32F10x_StdPeriph_Driver\src/stm32f10x_flash.c:1077
     
      /* Wait for last operation to be completed */
      status = FLASH_WaitForLastOperation(ProgramTimeout);
  76:	f44f 5000 	mov.w	r0, #8192	; 0x2000
C:\Downloaded Files\Virtual-Com-2\Virtual-Com-2\Project\Virtual_COM_Port\RIDE\Libraries\STM32F10x_StdPeriph_Driver\src/stm32f10x_flash.c:1074
      status = FLASH_WaitForLastOperation(ProgramTimeout);
    }
    
    if((status == FLASH_COMPLETE)&& (WRP3_Data != 0xFF))
    {
      OB->WRP3 = WRP3_Data;
  7a:	81dc      	strh	r4, [r3, #14]
C:\Downloaded Files\Virtual-Com-2\Virtual-Com-2\Project\Virtual_COM_Port\RIDE\Libraries\STM32F10x_StdPeriph_Driver\src/stm32f10x_flash.c:1077
     
      /* Wait for last operation to be completed */
      status = FLASH_WaitForLastOperation(ProgramTimeout);
  7c:	f7ff fffe 	bl	0 <FLASH_EnableWriteProtection>
C:\Downloaded Files\Virtual-Com-2\Virtual-Com-2\Project\Virtual_COM_Port\RIDE\Libraries\STM32F10x_StdPeriph_Driver\src/stm32f10x_flash.c:1080
    }
          
    if(status != FLASH_TIMEOUT)
  80:	2805      	cmp	r0, #5
  82:	d101      	bne.n	88 <FLASH_EnableWriteProtection+0x88>
  84:	bd10      	pop	{r4, pc}
C:\Downloaded Files\Virtual-Com-2\Virtual-Com-2\Project\Virtual_COM_Port\RIDE\Libraries\STM32F10x_StdPeriph_Driver\src/stm32f10x_flash.c:1072
      
      /* Wait for last operation to be completed */
      status = FLASH_WaitForLastOperation(ProgramTimeout);
    }
    
    if((status == FLASH_COMPLETE)&& (WRP3_Data != 0xFF))
  86:	2004      	movs	r0, #4
C:\Downloaded Files\Virtual-Com-2\Virtual-Com-2\Project\Virtual_COM_Port\RIDE\Libraries\STM32F10x_StdPeriph_Driver\src/stm32f10x_flash.c:1083
    }
          
    if(status != FLASH_TIMEOUT)
    {
      /* if the program operation is completed, disable the OPTPG Bit */
      FLASH->CR &= CR_OPTPG_Reset;
  88:	4a03      	ldr	r2, [pc, #12]	; (98 <FLASH_EnableWriteProtection+0x98>)
  8a:	f641 73ef 	movw	r3, #8175	; 0x1fef
  8e:	6911      	ldr	r1, [r2, #16]
  90:	ea01 0303 	and.w	r3, r1, r3
  94:	6113      	str	r3, [r2, #16]
C:\Downloaded Files\Virtual-Com-2\Virtual-Com-2\Project\Virtual_COM_Port\RIDE\Libraries\STM32F10x_StdPeriph_Driver\src/stm32f10x_flash.c:1088
    }
  } 
  /* Return the write protection operation Status */
  return status;       
}
  96:	bd10      	pop	{r4, pc}
  98:	40022000 	.word	0x40022000
  9c:	45670123 	.word	0x45670123
  a0:	cdef89ab 	.word	0xcdef89ab
  a4:	1ffff800 	.word	0x1ffff800

Disassembly of section .text.FLASH_ProgramOptionByteData:

00000000 <FLASH_ProgramOptionByteData>:
FLASH_ProgramOptionByteData():
C:\Downloaded Files\Virtual-Com-2\Virtual-Com-2\Project\Virtual_COM_Port\RIDE\Libraries\STM32F10x_StdPeriph_Driver\src/stm32f10x_flash.c:981
  * @param  Data: specifies the data to be programmed.
  * @retval FLASH Status: The returned value can be: FLASH_ERROR_PG,
  *   FLASH_ERROR_WRP, FLASH_COMPLETE or FLASH_TIMEOUT. 
  */
FLASH_Status FLASH_ProgramOptionByteData(uint32_t Address, uint8_t Data)
{
   0:	4604b570 	.word	0x4604b570
C:\Downloaded Files\Virtual-Com-2\Virtual-Com-2\Project\Virtual_COM_Port\RIDE\Libraries\STM32F10x_StdPeriph_Driver\src/stm32f10x_flash.c:985
  FLASH_Status status = FLASH_COMPLETE;
  /* Check the parameters */
  assert_param(IS_OB_DATA_ADDRESS(Address));
  status = FLASH_WaitForLastOperation(ProgramTimeout);
   4:	f44f 5000 	mov.w	r0, #8192	; 0x2000
C:\Downloaded Files\Virtual-Com-2\Virtual-Com-2\Project\Virtual_COM_Port\RIDE\Libraries\STM32F10x_StdPeriph_Driver\src/stm32f10x_flash.c:981
  * @param  Data: specifies the data to be programmed.
  * @retval FLASH Status: The returned value can be: FLASH_ERROR_PG,
  *   FLASH_ERROR_WRP, FLASH_COMPLETE or FLASH_TIMEOUT. 
  */
FLASH_Status FLASH_ProgramOptionByteData(uint32_t Address, uint8_t Data)
{
   8:	460e      	mov	r6, r1
C:\Downloaded Files\Virtual-Com-2\Virtual-Com-2\Project\Virtual_COM_Port\RIDE\Libraries\STM32F10x_StdPeriph_Driver\src/stm32f10x_flash.c:985
  FLASH_Status status = FLASH_COMPLETE;
  /* Check the parameters */
  assert_param(IS_OB_DATA_ADDRESS(Address));
  status = FLASH_WaitForLastOperation(ProgramTimeout);
   a:	f7ff fffe 	bl	0 <FLASH_ProgramOptionByteData>
C:\Downloaded Files\Virtual-Com-2\Virtual-Com-2\Project\Virtual_COM_Port\RIDE\Libraries\STM32F10x_StdPeriph_Driver\src/stm32f10x_flash.c:987

  if(status == FLASH_COMPLETE)
   e:	2804      	cmp	r0, #4
  10:	d115      	bne.n	3e <FLASH_ProgramOptionByteData+0x3e>
C:\Downloaded Files\Virtual-Com-2\Virtual-Com-2\Project\Virtual_COM_Port\RIDE\Libraries\STM32F10x_StdPeriph_Driver\src/stm32f10x_flash.c:990
  {
    /* Authorize the small information block programming */
    FLASH->OPTKEYR = FLASH_KEY1;
  12:	4d0b      	ldr	r5, [pc, #44]	; (40 <FLASH_ProgramOptionByteData+0x40>)
  14:	4b0b      	ldr	r3, [pc, #44]	; (44 <FLASH_ProgramOptionByteData+0x44>)
C:\Downloaded Files\Virtual-Com-2\Virtual-Com-2\Project\Virtual_COM_Port\RIDE\Libraries\STM32F10x_StdPeriph_Driver\src/stm32f10x_flash.c:997
    /* Enables the Option Bytes Programming operation */
    FLASH->CR |= CR_OPTPG_Set; 
    *(__IO uint16_t*)Address = Data;
    
    /* Wait for last operation to be completed */
    status = FLASH_WaitForLastOperation(ProgramTimeout);
  16:	f44f 5000 	mov.w	r0, #8192	; 0x2000
C:\Downloaded Files\Virtual-Com-2\Virtual-Com-2\Project\Virtual_COM_Port\RIDE\Libraries\STM32F10x_StdPeriph_Driver\src/stm32f10x_flash.c:990
  status = FLASH_WaitForLastOperation(ProgramTimeout);

  if(status == FLASH_COMPLETE)
  {
    /* Authorize the small information block programming */
    FLASH->OPTKEYR = FLASH_KEY1;
  1a:	60ab      	str	r3, [r5, #8]
C:\Downloaded Files\Virtual-Com-2\Virtual-Com-2\Project\Virtual_COM_Port\RIDE\Libraries\STM32F10x_StdPeriph_Driver\src/stm32f10x_flash.c:991
    FLASH->OPTKEYR = FLASH_KEY2;
  1c:	4b0a      	ldr	r3, [pc, #40]	; (48 <FLASH_ProgramOptionByteData+0x48>)
  1e:	60ab      	str	r3, [r5, #8]
C:\Downloaded Files\Virtual-Com-2\Virtual-Com-2\Project\Virtual_COM_Port\RIDE\Libraries\STM32F10x_StdPeriph_Driver\src/stm32f10x_flash.c:993
    /* Enables the Option Bytes Programming operation */
    FLASH->CR |= CR_OPTPG_Set; 
  20:	692b      	ldr	r3, [r5, #16]
  22:	f043 0310 	orr.w	r3, r3, #16
  26:	612b      	str	r3, [r5, #16]
C:\Downloaded Files\Virtual-Com-2\Virtual-Com-2\Project\Virtual_COM_Port\RIDE\Libraries\STM32F10x_StdPeriph_Driver\src/stm32f10x_flash.c:994
    *(__IO uint16_t*)Address = Data;
  28:	8026      	strh	r6, [r4, #0]
C:\Downloaded Files\Virtual-Com-2\Virtual-Com-2\Project\Virtual_COM_Port\RIDE\Libraries\STM32F10x_StdPeriph_Driver\src/stm32f10x_flash.c:997
    
    /* Wait for last operation to be completed */
    status = FLASH_WaitForLastOperation(ProgramTimeout);
  2a:	f7ff fffe 	bl	0 <FLASH_ProgramOptionByteData>
C:\Downloaded Files\Virtual-Com-2\Virtual-Com-2\Project\Virtual_COM_Port\RIDE\Libraries\STM32F10x_StdPeriph_Driver\src/stm32f10x_flash.c:998
    if(status != FLASH_TIMEOUT)
  2e:	2805      	cmp	r0, #5
  30:	d005      	beq.n	3e <FLASH_ProgramOptionByteData+0x3e>
C:\Downloaded Files\Virtual-Com-2\Virtual-Com-2\Project\Virtual_COM_Port\RIDE\Libraries\STM32F10x_StdPeriph_Driver\src/stm32f10x_flash.c:1001
    {
      /* if the program operation is completed, disable the OPTPG Bit */
      FLASH->CR &= CR_OPTPG_Reset;
  32:	692a      	ldr	r2, [r5, #16]
  34:	f641 73ef 	movw	r3, #8175	; 0x1fef
  38:	ea02 0303 	and.w	r3, r2, r3
  3c:	612b      	str	r3, [r5, #16]
C:\Downloaded Files\Virtual-Com-2\Virtual-Com-2\Project\Virtual_COM_Port\RIDE\Libraries\STM32F10x_StdPeriph_Driver\src/stm32f10x_flash.c:1006
    }
  }
  /* Return the Option Byte Data Program Status */
  return status;
}
  3e:	bd70      	pop	{r4, r5, r6, pc}
  40:	40022000 	.word	0x40022000
  44:	45670123 	.word	0x45670123
  48:	cdef89ab 	.word	0xcdef89ab

Disassembly of section .text.FLASH_ProgramHalfWord:

00000000 <FLASH_ProgramHalfWord>:
FLASH_ProgramHalfWord():
C:\Downloaded Files\Virtual-Com-2\Virtual-Com-2\Project\Virtual_COM_Port\RIDE\Libraries\STM32F10x_StdPeriph_Driver\src/stm32f10x_flash.c:904
  * @param  Data: specifies the data to be programmed.
  * @retval FLASH Status: The returned value can be: FLASH_ERROR_PG,
  *   FLASH_ERROR_WRP, FLASH_COMPLETE or FLASH_TIMEOUT. 
  */
FLASH_Status FLASH_ProgramHalfWord(uint32_t Address, uint16_t Data)
{
   0:	4604b570 	.word	0x4604b570
C:\Downloaded Files\Virtual-Com-2\Virtual-Com-2\Project\Virtual_COM_Port\RIDE\Libraries\STM32F10x_StdPeriph_Driver\src/stm32f10x_flash.c:949
      }
    }
  }
#else
  /* Wait for last operation to be completed */
  status = FLASH_WaitForLastOperation(ProgramTimeout);
   4:	f44f 5000 	mov.w	r0, #8192	; 0x2000
C:\Downloaded Files\Virtual-Com-2\Virtual-Com-2\Project\Virtual_COM_Port\RIDE\Libraries\STM32F10x_StdPeriph_Driver\src/stm32f10x_flash.c:904
  * @param  Data: specifies the data to be programmed.
  * @retval FLASH Status: The returned value can be: FLASH_ERROR_PG,
  *   FLASH_ERROR_WRP, FLASH_COMPLETE or FLASH_TIMEOUT. 
  */
FLASH_Status FLASH_ProgramHalfWord(uint32_t Address, uint16_t Data)
{
   8:	460e      	mov	r6, r1
C:\Downloaded Files\Virtual-Com-2\Virtual-Com-2\Project\Virtual_COM_Port\RIDE\Libraries\STM32F10x_StdPeriph_Driver\src/stm32f10x_flash.c:949
      }
    }
  }
#else
  /* Wait for last operation to be completed */
  status = FLASH_WaitForLastOperation(ProgramTimeout);
   a:	f7ff fffe 	bl	0 <FLASH_ProgramHalfWord>
C:\Downloaded Files\Virtual-Com-2\Virtual-Com-2\Project\Virtual_COM_Port\RIDE\Libraries\STM32F10x_StdPeriph_Driver\src/stm32f10x_flash.c:951
  
  if(status == FLASH_COMPLETE)
   e:	2804      	cmp	r0, #4
  10:	d111      	bne.n	36 <FLASH_ProgramHalfWord+0x36>
C:\Downloaded Files\Virtual-Com-2\Virtual-Com-2\Project\Virtual_COM_Port\RIDE\Libraries\STM32F10x_StdPeriph_Driver\src/stm32f10x_flash.c:954
  {
    /* if the previous operation is completed, proceed to program the new data */
    FLASH->CR |= CR_PG_Set;
  12:	4d09      	ldr	r5, [pc, #36]	; (38 <FLASH_ProgramHalfWord+0x38>)
C:\Downloaded Files\Virtual-Com-2\Virtual-Com-2\Project\Virtual_COM_Port\RIDE\Libraries\STM32F10x_StdPeriph_Driver\src/stm32f10x_flash.c:958
  
    *(__IO uint16_t*)Address = Data;
    /* Wait for last operation to be completed */
    status = FLASH_WaitForLastOperation(ProgramTimeout);
  14:	f44f 5000 	mov.w	r0, #8192	; 0x2000
C:\Downloaded Files\Virtual-Com-2\Virtual-Com-2\Project\Virtual_COM_Port\RIDE\Libraries\STM32F10x_StdPeriph_Driver\src/stm32f10x_flash.c:954
  status = FLASH_WaitForLastOperation(ProgramTimeout);
  
  if(status == FLASH_COMPLETE)
  {
    /* if the previous operation is completed, proceed to program the new data */
    FLASH->CR |= CR_PG_Set;
  18:	692b      	ldr	r3, [r5, #16]
  1a:	f043 0301 	orr.w	r3, r3, #1
  1e:	612b      	str	r3, [r5, #16]
C:\Downloaded Files\Virtual-Com-2\Virtual-Com-2\Project\Virtual_COM_Port\RIDE\Libraries\STM32F10x_StdPeriph_Driver\src/stm32f10x_flash.c:956
  
    *(__IO uint16_t*)Address = Data;
  20:	8026      	strh	r6, [r4, #0]
C:\Downloaded Files\Virtual-Com-2\Virtual-Com-2\Project\Virtual_COM_Port\RIDE\Libraries\STM32F10x_StdPeriph_Driver\src/stm32f10x_flash.c:958
    /* Wait for last operation to be completed */
    status = FLASH_WaitForLastOperation(ProgramTimeout);
  22:	f7ff fffe 	bl	0 <FLASH_ProgramHalfWord>
C:\Downloaded Files\Virtual-Com-2\Virtual-Com-2\Project\Virtual_COM_Port\RIDE\Libraries\STM32F10x_StdPeriph_Driver\src/stm32f10x_flash.c:959
    if(status != FLASH_TIMEOUT)
  26:	2805      	cmp	r0, #5
  28:	d005      	beq.n	36 <FLASH_ProgramHalfWord+0x36>
C:\Downloaded Files\Virtual-Com-2\Virtual-Com-2\Project\Virtual_COM_Port\RIDE\Libraries\STM32F10x_StdPeriph_Driver\src/stm32f10x_flash.c:962
    {
      /* if the program operation is completed, disable the PG Bit */
      FLASH->CR &= CR_PG_Reset;
  2a:	692a      	ldr	r2, [r5, #16]
  2c:	f641 73fe 	movw	r3, #8190	; 0x1ffe
  30:	ea02 0303 	and.w	r3, r2, r3
  34:	612b      	str	r3, [r5, #16]
C:\Downloaded Files\Virtual-Com-2\Virtual-Com-2\Project\Virtual_COM_Port\RIDE\Libraries\STM32F10x_StdPeriph_Driver\src/stm32f10x_flash.c:969
  } 
#endif  /* STM32F10X_XL */
  
  /* Return the Program Status */
  return status;
}
  36:	bd70      	pop	{r4, r5, r6, pc}
  38:	40022000 	.word	0x40022000

Disassembly of section .text.FLASH_ProgramWord:

00000000 <FLASH_ProgramWord>:
FLASH_ProgramWord():
C:\Downloaded Files\Virtual-Com-2\Virtual-Com-2\Project\Virtual_COM_Port\RIDE\Libraries\STM32F10x_StdPeriph_Driver\src/stm32f10x_flash.c:697
  * @param  Data: specifies the data to be programmed.
  * @retval FLASH Status: The returned value can be: FLASH_ERROR_PG,
  *   FLASH_ERROR_WRP, FLASH_COMPLETE or FLASH_TIMEOUT. 
  */
FLASH_Status FLASH_ProgramWord(uint32_t Address, uint32_t Data)
{
   0:	b573      	push	{r0, r1, r4, r5, r6, lr}
C:\Downloaded Files\Virtual-Com-2\Virtual-Com-2\Project\Virtual_COM_Port\RIDE\Libraries\STM32F10x_StdPeriph_Driver\src/stm32f10x_flash.c:699
  FLASH_Status status = FLASH_COMPLETE;
  __IO uint32_t tmp = 0;
   2:	2300      	movs	r3, #0
C:\Downloaded Files\Virtual-Com-2\Virtual-Com-2\Project\Virtual_COM_Port\RIDE\Libraries\STM32F10x_StdPeriph_Driver\src/stm32f10x_flash.c:697
  * @param  Data: specifies the data to be programmed.
  * @retval FLASH Status: The returned value can be: FLASH_ERROR_PG,
  *   FLASH_ERROR_WRP, FLASH_COMPLETE or FLASH_TIMEOUT. 
  */
FLASH_Status FLASH_ProgramWord(uint32_t Address, uint32_t Data)
{
   4:	4604      	mov	r4, r0
C:\Downloaded Files\Virtual-Com-2\Virtual-Com-2\Project\Virtual_COM_Port\RIDE\Libraries\STM32F10x_StdPeriph_Driver\src/stm32f10x_flash.c:851
      }
    }
  }
#else
  /* Wait for last operation to be completed */
  status = FLASH_WaitForLastOperation(ProgramTimeout);
   6:	f44f 5000 	mov.w	r0, #8192	; 0x2000
C:\Downloaded Files\Virtual-Com-2\Virtual-Com-2\Project\Virtual_COM_Port\RIDE\Libraries\STM32F10x_StdPeriph_Driver\src/stm32f10x_flash.c:697
  * @param  Data: specifies the data to be programmed.
  * @retval FLASH Status: The returned value can be: FLASH_ERROR_PG,
  *   FLASH_ERROR_WRP, FLASH_COMPLETE or FLASH_TIMEOUT. 
  */
FLASH_Status FLASH_ProgramWord(uint32_t Address, uint32_t Data)
{
   a:	460e      	mov	r6, r1
C:\Downloaded Files\Virtual-Com-2\Virtual-Com-2\Project\Virtual_COM_Port\RIDE\Libraries\STM32F10x_StdPeriph_Driver\src/stm32f10x_flash.c:699
  FLASH_Status status = FLASH_COMPLETE;
  __IO uint32_t tmp = 0;
   c:	9301      	str	r3, [sp, #4]
C:\Downloaded Files\Virtual-Com-2\Virtual-Com-2\Project\Virtual_COM_Port\RIDE\Libraries\STM32F10x_StdPeriph_Driver\src/stm32f10x_flash.c:851
      }
    }
  }
#else
  /* Wait for last operation to be completed */
  status = FLASH_WaitForLastOperation(ProgramTimeout);
   e:	f7ff fffe 	bl	0 <FLASH_ProgramWord>
C:\Downloaded Files\Virtual-Com-2\Virtual-Com-2\Project\Virtual_COM_Port\RIDE\Libraries\STM32F10x_StdPeriph_Driver\src/stm32f10x_flash.c:853
  
  if(status == FLASH_COMPLETE)
  12:	2804      	cmp	r0, #4
  14:	d11d      	bne.n	52 <FLASH_ProgramWord+0x52>
C:\Downloaded Files\Virtual-Com-2\Virtual-Com-2\Project\Virtual_COM_Port\RIDE\Libraries\STM32F10x_StdPeriph_Driver\src/stm32f10x_flash.c:857
  {
    /* if the previous operation is completed, proceed to program the new first 
    half word */
    FLASH->CR |= CR_PG_Set;
  16:	4d0f      	ldr	r5, [pc, #60]	; (54 <FLASH_ProgramWord+0x54>)
C:\Downloaded Files\Virtual-Com-2\Virtual-Com-2\Project\Virtual_COM_Port\RIDE\Libraries\STM32F10x_StdPeriph_Driver\src/stm32f10x_flash.c:861
  
    *(__IO uint16_t*)Address = (uint16_t)Data;
    /* Wait for last operation to be completed */
    status = FLASH_WaitForLastOperation(ProgramTimeout);
  18:	f44f 5000 	mov.w	r0, #8192	; 0x2000
C:\Downloaded Files\Virtual-Com-2\Virtual-Com-2\Project\Virtual_COM_Port\RIDE\Libraries\STM32F10x_StdPeriph_Driver\src/stm32f10x_flash.c:857
  
  if(status == FLASH_COMPLETE)
  {
    /* if the previous operation is completed, proceed to program the new first 
    half word */
    FLASH->CR |= CR_PG_Set;
  1c:	692b      	ldr	r3, [r5, #16]
  1e:	f043 0301 	orr.w	r3, r3, #1
  22:	612b      	str	r3, [r5, #16]
C:\Downloaded Files\Virtual-Com-2\Virtual-Com-2\Project\Virtual_COM_Port\RIDE\Libraries\STM32F10x_StdPeriph_Driver\src/stm32f10x_flash.c:859
  
    *(__IO uint16_t*)Address = (uint16_t)Data;
  24:	b2b3      	uxth	r3, r6
  26:	8023      	strh	r3, [r4, #0]
C:\Downloaded Files\Virtual-Com-2\Virtual-Com-2\Project\Virtual_COM_Port\RIDE\Libraries\STM32F10x_StdPeriph_Driver\src/stm32f10x_flash.c:861
    /* Wait for last operation to be completed */
    status = FLASH_WaitForLastOperation(ProgramTimeout);
  28:	f7ff fffe 	bl	0 <FLASH_ProgramWord>
C:\Downloaded Files\Virtual-Com-2\Virtual-Com-2\Project\Virtual_COM_Port\RIDE\Libraries\STM32F10x_StdPeriph_Driver\src/stm32f10x_flash.c:863
 
    if(status == FLASH_COMPLETE)
  2c:	2804      	cmp	r0, #4
  2e:	d108      	bne.n	42 <FLASH_ProgramWord+0x42>
C:\Downloaded Files\Virtual-Com-2\Virtual-Com-2\Project\Virtual_COM_Port\RIDE\Libraries\STM32F10x_StdPeriph_Driver\src/stm32f10x_flash.c:867
    {
      /* if the previous operation is completed, proceed to program the new second 
      half word */
      tmp = Address + 2;
  30:	3402      	adds	r4, #2
  32:	9401      	str	r4, [sp, #4]
C:\Downloaded Files\Virtual-Com-2\Virtual-Com-2\Project\Virtual_COM_Port\RIDE\Libraries\STM32F10x_StdPeriph_Driver\src/stm32f10x_flash.c:869

      *(__IO uint16_t*) tmp = Data >> 16;
  34:	9b01      	ldr	r3, [sp, #4]
  36:	0c36      	lsrs	r6, r6, #16
  38:	801e      	strh	r6, [r3, #0]
C:\Downloaded Files\Virtual-Com-2\Virtual-Com-2\Project\Virtual_COM_Port\RIDE\Libraries\STM32F10x_StdPeriph_Driver\src/stm32f10x_flash.c:872
    
      /* Wait for last operation to be completed */
      status = FLASH_WaitForLastOperation(ProgramTimeout);
  3a:	f44f 5000 	mov.w	r0, #8192	; 0x2000
  3e:	f7ff fffe 	bl	0 <FLASH_ProgramWord>
C:\Downloaded Files\Virtual-Com-2\Virtual-Com-2\Project\Virtual_COM_Port\RIDE\Libraries\STM32F10x_StdPeriph_Driver\src/stm32f10x_flash.c:882
        FLASH->CR &= CR_PG_Reset;
      }
    }
    else
    {
      if (status != FLASH_TIMEOUT)
  42:	2805      	cmp	r0, #5
  44:	d005      	beq.n	52 <FLASH_ProgramWord+0x52>
C:\Downloaded Files\Virtual-Com-2\Virtual-Com-2\Project\Virtual_COM_Port\RIDE\Libraries\STM32F10x_StdPeriph_Driver\src/stm32f10x_flash.c:885
      {
        /* Disable the PG Bit */
        FLASH->CR &= CR_PG_Reset;
  46:	692a      	ldr	r2, [r5, #16]
  48:	f641 73fe 	movw	r3, #8190	; 0x1ffe
  4c:	ea02 0303 	and.w	r3, r2, r3
  50:	612b      	str	r3, [r5, #16]
C:\Downloaded Files\Virtual-Com-2\Virtual-Com-2\Project\Virtual_COM_Port\RIDE\Libraries\STM32F10x_StdPeriph_Driver\src/stm32f10x_flash.c:893
  }         
#endif /* STM32F10X_XL */
   
  /* Return the Program Status */
  return status;
}
  52:	bd7c      	pop	{r2, r3, r4, r5, r6, pc}
  54:	40022000 	.word	0x40022000

Disassembly of section .text.FLASH_EraseOptionBytes:

00000000 <FLASH_EraseOptionBytes>:
FLASH_EraseOptionBytes():
C:\Downloaded Files\Virtual-Com-2\Virtual-Com-2\Project\Virtual_COM_Port\RIDE\Libraries\STM32F10x_StdPeriph_Driver\src/stm32f10x_flash.c:632
  * @param  None
  * @retval FLASH Status: The returned value can be: FLASH_ERROR_PG,
  *   FLASH_ERROR_WRP, FLASH_COMPLETE or FLASH_TIMEOUT.
  */
FLASH_Status FLASH_EraseOptionBytes(void)
{
   0:	b538      	push	{r3, r4, r5, lr}
C:\Downloaded Files\Virtual-Com-2\Virtual-Com-2\Project\Virtual_COM_Port\RIDE\Libraries\STM32F10x_StdPeriph_Driver\src/stm32f10x_flash.c:638
  uint16_t rdptmp = RDP_Key;

  FLASH_Status status = FLASH_COMPLETE;

  /* Get the actual read protection Option Byte value */ 
  if(FLASH_GetReadOutProtectionStatus() != RESET)
   2:	f7ff fffe 	bl	0 <FLASH_EraseOptionBytes>
C:\Downloaded Files\Virtual-Com-2\Virtual-Com-2\Project\Virtual_COM_Port\RIDE\Libraries\STM32F10x_StdPeriph_Driver\src/stm32f10x_flash.c:633
  * @retval FLASH Status: The returned value can be: FLASH_ERROR_PG,
  *   FLASH_ERROR_WRP, FLASH_COMPLETE or FLASH_TIMEOUT.
  */
FLASH_Status FLASH_EraseOptionBytes(void)
{
  uint16_t rdptmp = RDP_Key;
   6:	2800      	cmp	r0, #0
   8:	bf0c      	ite	eq
   a:	25a5      	moveq	r5, #165	; 0xa5
   c:	2500      	movne	r5, #0
C:\Downloaded Files\Virtual-Com-2\Virtual-Com-2\Project\Virtual_COM_Port\RIDE\Libraries\STM32F10x_StdPeriph_Driver\src/stm32f10x_flash.c:644
  {
    rdptmp = 0x00;  
  }

  /* Wait for last operation to be completed */
  status = FLASH_WaitForLastOperation(EraseTimeout);
   e:	f44f 2030 	mov.w	r0, #720896	; 0xb0000
  12:	f7ff fffe 	bl	0 <FLASH_EraseOptionBytes>
C:\Downloaded Files\Virtual-Com-2\Virtual-Com-2\Project\Virtual_COM_Port\RIDE\Libraries\STM32F10x_StdPeriph_Driver\src/stm32f10x_flash.c:645
  if(status == FLASH_COMPLETE)
  16:	2804      	cmp	r0, #4
  18:	d133      	bne.n	82 <FLASH_EraseOptionBytes+0x82>
C:\Downloaded Files\Virtual-Com-2\Virtual-Com-2\Project\Virtual_COM_Port\RIDE\Libraries\STM32F10x_StdPeriph_Driver\src/stm32f10x_flash.c:648
  {
    /* Authorize the small information block programming */
    FLASH->OPTKEYR = FLASH_KEY1;
  1a:	4c1a      	ldr	r4, [pc, #104]	; (84 <FLASH_EraseOptionBytes+0x84>)
  1c:	4b1a      	ldr	r3, [pc, #104]	; (88 <FLASH_EraseOptionBytes+0x88>)
C:\Downloaded Files\Virtual-Com-2\Virtual-Com-2\Project\Virtual_COM_Port\RIDE\Libraries\STM32F10x_StdPeriph_Driver\src/stm32f10x_flash.c:655
    
    /* if the previous operation is completed, proceed to erase the option bytes */
    FLASH->CR |= CR_OPTER_Set;
    FLASH->CR |= CR_STRT_Set;
    /* Wait for last operation to be completed */
    status = FLASH_WaitForLastOperation(EraseTimeout);
  1e:	f44f 2030 	mov.w	r0, #720896	; 0xb0000
C:\Downloaded Files\Virtual-Com-2\Virtual-Com-2\Project\Virtual_COM_Port\RIDE\Libraries\STM32F10x_StdPeriph_Driver\src/stm32f10x_flash.c:648
  /* Wait for last operation to be completed */
  status = FLASH_WaitForLastOperation(EraseTimeout);
  if(status == FLASH_COMPLETE)
  {
    /* Authorize the small information block programming */
    FLASH->OPTKEYR = FLASH_KEY1;
  22:	60a3      	str	r3, [r4, #8]
C:\Downloaded Files\Virtual-Com-2\Virtual-Com-2\Project\Virtual_COM_Port\RIDE\Libraries\STM32F10x_StdPeriph_Driver\src/stm32f10x_flash.c:649
    FLASH->OPTKEYR = FLASH_KEY2;
  24:	4b19      	ldr	r3, [pc, #100]	; (8c <FLASH_EraseOptionBytes+0x8c>)
  26:	60a3      	str	r3, [r4, #8]
C:\Downloaded Files\Virtual-Com-2\Virtual-Com-2\Project\Virtual_COM_Port\RIDE\Libraries\STM32F10x_StdPeriph_Driver\src/stm32f10x_flash.c:652
    
    /* if the previous operation is completed, proceed to erase the option bytes */
    FLASH->CR |= CR_OPTER_Set;
  28:	6923      	ldr	r3, [r4, #16]
  2a:	f043 0320 	orr.w	r3, r3, #32
  2e:	6123      	str	r3, [r4, #16]
C:\Downloaded Files\Virtual-Com-2\Virtual-Com-2\Project\Virtual_COM_Port\RIDE\Libraries\STM32F10x_StdPeriph_Driver\src/stm32f10x_flash.c:653
    FLASH->CR |= CR_STRT_Set;
  30:	6923      	ldr	r3, [r4, #16]
  32:	f043 0340 	orr.w	r3, r3, #64	; 0x40
  36:	6123      	str	r3, [r4, #16]
C:\Downloaded Files\Virtual-Com-2\Virtual-Com-2\Project\Virtual_COM_Port\RIDE\Libraries\STM32F10x_StdPeriph_Driver\src/stm32f10x_flash.c:655
    /* Wait for last operation to be completed */
    status = FLASH_WaitForLastOperation(EraseTimeout);
  38:	f7ff fffe 	bl	0 <FLASH_EraseOptionBytes>
C:\Downloaded Files\Virtual-Com-2\Virtual-Com-2\Project\Virtual_COM_Port\RIDE\Libraries\STM32F10x_StdPeriph_Driver\src/stm32f10x_flash.c:657
    
    if(status == FLASH_COMPLETE)
  3c:	2804      	cmp	r0, #4
  3e:	d118      	bne.n	72 <FLASH_EraseOptionBytes+0x72>
C:\Downloaded Files\Virtual-Com-2\Virtual-Com-2\Project\Virtual_COM_Port\RIDE\Libraries\STM32F10x_StdPeriph_Driver\src/stm32f10x_flash.c:660
    {
      /* if the erase operation is completed, disable the OPTER Bit */
      FLASH->CR &= CR_OPTER_Reset;
  40:	6922      	ldr	r2, [r4, #16]
  42:	f641 73df 	movw	r3, #8159	; 0x1fdf
  46:	ea02 0303 	and.w	r3, r2, r3
  4a:	6123      	str	r3, [r4, #16]
C:\Downloaded Files\Virtual-Com-2\Virtual-Com-2\Project\Virtual_COM_Port\RIDE\Libraries\STM32F10x_StdPeriph_Driver\src/stm32f10x_flash.c:663
       
      /* Enable the Option Bytes Programming operation */
      FLASH->CR |= CR_OPTPG_Set;
  4c:	6923      	ldr	r3, [r4, #16]
C:\Downloaded Files\Virtual-Com-2\Virtual-Com-2\Project\Virtual_COM_Port\RIDE\Libraries\STM32F10x_StdPeriph_Driver\src/stm32f10x_flash.c:667
      /* Restore the last read protection Option Byte value */
      OB->RDP = (uint16_t)rdptmp; 
      /* Wait for last operation to be completed */
      status = FLASH_WaitForLastOperation(ProgramTimeout);
  4e:	f44f 5000 	mov.w	r0, #8192	; 0x2000
C:\Downloaded Files\Virtual-Com-2\Virtual-Com-2\Project\Virtual_COM_Port\RIDE\Libraries\STM32F10x_StdPeriph_Driver\src/stm32f10x_flash.c:663
    {
      /* if the erase operation is completed, disable the OPTER Bit */
      FLASH->CR &= CR_OPTER_Reset;
       
      /* Enable the Option Bytes Programming operation */
      FLASH->CR |= CR_OPTPG_Set;
  52:	f043 0310 	orr.w	r3, r3, #16
  56:	6123      	str	r3, [r4, #16]
C:\Downloaded Files\Virtual-Com-2\Virtual-Com-2\Project\Virtual_COM_Port\RIDE\Libraries\STM32F10x_StdPeriph_Driver\src/stm32f10x_flash.c:665
      /* Restore the last read protection Option Byte value */
      OB->RDP = (uint16_t)rdptmp; 
  58:	4b0d      	ldr	r3, [pc, #52]	; (90 <FLASH_EraseOptionBytes+0x90>)
  5a:	801d      	strh	r5, [r3, #0]
C:\Downloaded Files\Virtual-Com-2\Virtual-Com-2\Project\Virtual_COM_Port\RIDE\Libraries\STM32F10x_StdPeriph_Driver\src/stm32f10x_flash.c:667
      /* Wait for last operation to be completed */
      status = FLASH_WaitForLastOperation(ProgramTimeout);
  5c:	f7ff fffe 	bl	0 <FLASH_EraseOptionBytes>
C:\Downloaded Files\Virtual-Com-2\Virtual-Com-2\Project\Virtual_COM_Port\RIDE\Libraries\STM32F10x_StdPeriph_Driver\src/stm32f10x_flash.c:669
 
      if(status != FLASH_TIMEOUT)
  60:	2805      	cmp	r0, #5
  62:	d00e      	beq.n	82 <FLASH_EraseOptionBytes+0x82>
C:\Downloaded Files\Virtual-Com-2\Virtual-Com-2\Project\Virtual_COM_Port\RIDE\Libraries\STM32F10x_StdPeriph_Driver\src/stm32f10x_flash.c:672
      {
        /* if the program operation is completed, disable the OPTPG Bit */
        FLASH->CR &= CR_OPTPG_Reset;
  64:	6922      	ldr	r2, [r4, #16]
  66:	f641 73ef 	movw	r3, #8175	; 0x1fef
  6a:	ea02 0303 	and.w	r3, r2, r3
  6e:	6123      	str	r3, [r4, #16]
  70:	bd38      	pop	{r3, r4, r5, pc}
C:\Downloaded Files\Virtual-Com-2\Virtual-Com-2\Project\Virtual_COM_Port\RIDE\Libraries\STM32F10x_StdPeriph_Driver\src/stm32f10x_flash.c:677
      }
    }
    else
    {
      if (status != FLASH_TIMEOUT)
  72:	2805      	cmp	r0, #5
  74:	d005      	beq.n	82 <FLASH_EraseOptionBytes+0x82>
C:\Downloaded Files\Virtual-Com-2\Virtual-Com-2\Project\Virtual_COM_Port\RIDE\Libraries\STM32F10x_StdPeriph_Driver\src/stm32f10x_flash.c:680
      {
        /* Disable the OPTPG Bit */
        FLASH->CR &= CR_OPTPG_Reset;
  76:	6922      	ldr	r2, [r4, #16]
  78:	f641 73ef 	movw	r3, #8175	; 0x1fef
  7c:	ea02 0303 	and.w	r3, r2, r3
  80:	6123      	str	r3, [r4, #16]
C:\Downloaded Files\Virtual-Com-2\Virtual-Com-2\Project\Virtual_COM_Port\RIDE\Libraries\STM32F10x_StdPeriph_Driver\src/stm32f10x_flash.c:686
      }
    }  
  }
  /* Return the erase status */
  return status;
}
  82:	bd38      	pop	{r3, r4, r5, pc}
  84:	40022000 	.word	0x40022000
  88:	45670123 	.word	0x45670123
  8c:	cdef89ab 	.word	0xcdef89ab
  90:	1ffff800 	.word	0x1ffff800

Disassembly of section .text.FLASH_EraseAllPages:

00000000 <FLASH_EraseAllPages>:
FLASH_EraseAllPages():
C:\Downloaded Files\Virtual-Com-2\Virtual-Com-2\Project\Virtual_COM_Port\RIDE\Libraries\STM32F10x_StdPeriph_Driver\src/stm32f10x_flash.c:498
  * @param  None
  * @retval FLASH Status: The returned value can be: FLASH_ERROR_PG,
  *   FLASH_ERROR_WRP, FLASH_COMPLETE or FLASH_TIMEOUT.
  */
FLASH_Status FLASH_EraseAllPages(void)
{
   0:	f44fb510 	.word	0xf44fb510
C:\Downloaded Files\Virtual-Com-2\Virtual-Com-2\Project\Virtual_COM_Port\RIDE\Libraries\STM32F10x_StdPeriph_Driver\src/stm32f10x_flash.c:535
      FLASH->CR2 &= CR_MER_Reset;
    }
  }
#else
  /* Wait for last operation to be completed */
  status = FLASH_WaitForLastOperation(EraseTimeout);
   4:	2030      	movs	r0, #48	; 0x30
   6:	f7ff fffe 	bl	0 <FLASH_EraseAllPages>
C:\Downloaded Files\Virtual-Com-2\Virtual-Com-2\Project\Virtual_COM_Port\RIDE\Libraries\STM32F10x_StdPeriph_Driver\src/stm32f10x_flash.c:536
  if(status == FLASH_COMPLETE)
   a:	2804      	cmp	r0, #4
   c:	d114      	bne.n	38 <FLASH_EraseAllPages+0x38>
C:\Downloaded Files\Virtual-Com-2\Virtual-Com-2\Project\Virtual_COM_Port\RIDE\Libraries\STM32F10x_StdPeriph_Driver\src/stm32f10x_flash.c:539
  {
    /* if the previous operation is completed, proceed to erase all pages */
     FLASH->CR |= CR_MER_Set;
   e:	4c0b      	ldr	r4, [pc, #44]	; (3c <FLASH_EraseAllPages+0x3c>)
C:\Downloaded Files\Virtual-Com-2\Virtual-Com-2\Project\Virtual_COM_Port\RIDE\Libraries\STM32F10x_StdPeriph_Driver\src/stm32f10x_flash.c:543
     FLASH->CR |= CR_STRT_Set;
    
    /* Wait for last operation to be completed */
    status = FLASH_WaitForLastOperation(EraseTimeout);
  10:	f44f 2030 	mov.w	r0, #720896	; 0xb0000
C:\Downloaded Files\Virtual-Com-2\Virtual-Com-2\Project\Virtual_COM_Port\RIDE\Libraries\STM32F10x_StdPeriph_Driver\src/stm32f10x_flash.c:539
  /* Wait for last operation to be completed */
  status = FLASH_WaitForLastOperation(EraseTimeout);
  if(status == FLASH_COMPLETE)
  {
    /* if the previous operation is completed, proceed to erase all pages */
     FLASH->CR |= CR_MER_Set;
  14:	6923      	ldr	r3, [r4, #16]
  16:	f043 0304 	orr.w	r3, r3, #4
  1a:	6123      	str	r3, [r4, #16]
C:\Downloaded Files\Virtual-Com-2\Virtual-Com-2\Project\Virtual_COM_Port\RIDE\Libraries\STM32F10x_StdPeriph_Driver\src/stm32f10x_flash.c:540
     FLASH->CR |= CR_STRT_Set;
  1c:	6923      	ldr	r3, [r4, #16]
  1e:	f043 0340 	orr.w	r3, r3, #64	; 0x40
  22:	6123      	str	r3, [r4, #16]
C:\Downloaded Files\Virtual-Com-2\Virtual-Com-2\Project\Virtual_COM_Port\RIDE\Libraries\STM32F10x_StdPeriph_Driver\src/stm32f10x_flash.c:543
    
    /* Wait for last operation to be completed */
    status = FLASH_WaitForLastOperation(EraseTimeout);
  24:	f7ff fffe 	bl	0 <FLASH_EraseAllPages>
C:\Downloaded Files\Virtual-Com-2\Virtual-Com-2\Project\Virtual_COM_Port\RIDE\Libraries\STM32F10x_StdPeriph_Driver\src/stm32f10x_flash.c:544
    if(status != FLASH_TIMEOUT)
  28:	2805      	cmp	r0, #5
  2a:	d005      	beq.n	38 <FLASH_EraseAllPages+0x38>
C:\Downloaded Files\Virtual-Com-2\Virtual-Com-2\Project\Virtual_COM_Port\RIDE\Libraries\STM32F10x_StdPeriph_Driver\src/stm32f10x_flash.c:547
    {
      /* if the erase operation is completed, disable the MER Bit */
      FLASH->CR &= CR_MER_Reset;
  2c:	6922      	ldr	r2, [r4, #16]
  2e:	f641 73fb 	movw	r3, #8187	; 0x1ffb
  32:	ea02 0303 	and.w	r3, r2, r3
  36:	6123      	str	r3, [r4, #16]
C:\Downloaded Files\Virtual-Com-2\Virtual-Com-2\Project\Virtual_COM_Port\RIDE\Libraries\STM32F10x_StdPeriph_Driver\src/stm32f10x_flash.c:554
  }
#endif /* STM32F10X_XL */

  /* Return the Erase Status */
  return status;
}
  38:	bd10      	pop	{r4, pc}
  3a:	bf00      	nop
  3c:	40022000 	.word	0x40022000

Disassembly of section .text.FLASH_ErasePage:

00000000 <FLASH_ErasePage>:
FLASH_ErasePage():
C:\Downloaded Files\Virtual-Com-2\Virtual-Com-2\Project\Virtual_COM_Port\RIDE\Libraries\STM32F10x_StdPeriph_Driver\src/stm32f10x_flash.c:419
  * @param  Page_Address: The page address to be erased.
  * @retval FLASH Status: The returned value can be: FLASH_BUSY, FLASH_ERROR_PG,
  *   FLASH_ERROR_WRP, FLASH_COMPLETE or FLASH_TIMEOUT.
  */
FLASH_Status FLASH_ErasePage(uint32_t Page_Address)
{
   0:	b538      	push	{r3, r4, r5, lr}
   2:	4605      	mov	r5, r0
C:\Downloaded Files\Virtual-Com-2\Virtual-Com-2\Project\Virtual_COM_Port\RIDE\Libraries\STM32F10x_StdPeriph_Driver\src/stm32f10x_flash.c:467
      }
    }
  }
#else
  /* Wait for last operation to be completed */
  status = FLASH_WaitForLastOperation(EraseTimeout);
   4:	f44f 2030 	mov.w	r0, #720896	; 0xb0000
   8:	f7ff fffe 	bl	0 <FLASH_ErasePage>
C:\Downloaded Files\Virtual-Com-2\Virtual-Com-2\Project\Virtual_COM_Port\RIDE\Libraries\STM32F10x_StdPeriph_Driver\src/stm32f10x_flash.c:469
  
  if(status == FLASH_COMPLETE)
   c:	2804      	cmp	r0, #4
   e:	d115      	bne.n	3c <FLASH_ErasePage+0x3c>
C:\Downloaded Files\Virtual-Com-2\Virtual-Com-2\Project\Virtual_COM_Port\RIDE\Libraries\STM32F10x_StdPeriph_Driver\src/stm32f10x_flash.c:472
  { 
    /* if the previous operation is completed, proceed to erase the page */
    FLASH->CR|= CR_PER_Set;
  10:	4c0b      	ldr	r4, [pc, #44]	; (40 <FLASH_ErasePage+0x40>)
C:\Downloaded Files\Virtual-Com-2\Virtual-Com-2\Project\Virtual_COM_Port\RIDE\Libraries\STM32F10x_StdPeriph_Driver\src/stm32f10x_flash.c:477
    FLASH->AR = Page_Address; 
    FLASH->CR|= CR_STRT_Set;
    
    /* Wait for last operation to be completed */
    status = FLASH_WaitForLastOperation(EraseTimeout);
  12:	f44f 2030 	mov.w	r0, #720896	; 0xb0000
C:\Downloaded Files\Virtual-Com-2\Virtual-Com-2\Project\Virtual_COM_Port\RIDE\Libraries\STM32F10x_StdPeriph_Driver\src/stm32f10x_flash.c:472
  status = FLASH_WaitForLastOperation(EraseTimeout);
  
  if(status == FLASH_COMPLETE)
  { 
    /* if the previous operation is completed, proceed to erase the page */
    FLASH->CR|= CR_PER_Set;
  16:	6923      	ldr	r3, [r4, #16]
  18:	f043 0302 	orr.w	r3, r3, #2
  1c:	6123      	str	r3, [r4, #16]
C:\Downloaded Files\Virtual-Com-2\Virtual-Com-2\Project\Virtual_COM_Port\RIDE\Libraries\STM32F10x_StdPeriph_Driver\src/stm32f10x_flash.c:473
    FLASH->AR = Page_Address; 
  1e:	6165      	str	r5, [r4, #20]
C:\Downloaded Files\Virtual-Com-2\Virtual-Com-2\Project\Virtual_COM_Port\RIDE\Libraries\STM32F10x_StdPeriph_Driver\src/stm32f10x_flash.c:474
    FLASH->CR|= CR_STRT_Set;
  20:	6923      	ldr	r3, [r4, #16]
  22:	f043 0340 	orr.w	r3, r3, #64	; 0x40
  26:	6123      	str	r3, [r4, #16]
C:\Downloaded Files\Virtual-Com-2\Virtual-Com-2\Project\Virtual_COM_Port\RIDE\Libraries\STM32F10x_StdPeriph_Driver\src/stm32f10x_flash.c:477
    
    /* Wait for last operation to be completed */
    status = FLASH_WaitForLastOperation(EraseTimeout);
  28:	f7ff fffe 	bl	0 <FLASH_ErasePage>
C:\Downloaded Files\Virtual-Com-2\Virtual-Com-2\Project\Virtual_COM_Port\RIDE\Libraries\STM32F10x_StdPeriph_Driver\src/stm32f10x_flash.c:478
    if(status != FLASH_TIMEOUT)
  2c:	2805      	cmp	r0, #5
  2e:	d005      	beq.n	3c <FLASH_ErasePage+0x3c>
C:\Downloaded Files\Virtual-Com-2\Virtual-Com-2\Project\Virtual_COM_Port\RIDE\Libraries\STM32F10x_StdPeriph_Driver\src/stm32f10x_flash.c:481
    {
      /* if the erase operation is completed, disable the PER Bit */
      FLASH->CR &= CR_PER_Reset;
  30:	6922      	ldr	r2, [r4, #16]
  32:	f641 73fd 	movw	r3, #8189	; 0x1ffd
  36:	ea02 0303 	and.w	r3, r2, r3
  3a:	6123      	str	r3, [r4, #16]
C:\Downloaded Files\Virtual-Com-2\Virtual-Com-2\Project\Virtual_COM_Port\RIDE\Libraries\STM32F10x_StdPeriph_Driver\src/stm32f10x_flash.c:488
  }
#endif /* STM32F10X_XL */

  /* Return the Erase Status */
  return status;
}
  3c:	bd38      	pop	{r3, r4, r5, pc}
  3e:	bf00      	nop
  40:	40022000 	.word	0x40022000

Disassembly of section .text.FLASH_WaitForLastBank1Operation:

00000000 <FLASH_WaitForLastBank1Operation>:
FLASH_WaitForLastBank1Operation():
C:\Downloaded Files\Virtual-Com-2\Virtual-Com-2\Project\Virtual_COM_Port\RIDE\Libraries\STM32F10x_StdPeriph_Driver\src/stm32f10x_flash.c:1675
  * @param  Timeout: FLASH progamming Timeout
  * @retval FLASH Status: The returned value can be: FLASH_ERROR_PG,
  *   FLASH_ERROR_WRP, FLASH_COMPLETE or FLASH_TIMEOUT.
  */
FLASH_Status FLASH_WaitForLastBank1Operation(uint32_t Timeout)
{ 
   0:	b510      	push	{r4, lr}
   2:	4604      	mov	r4, r0
C:\Downloaded Files\Virtual-Com-2\Virtual-Com-2\Project\Virtual_COM_Port\RIDE\Libraries\STM32F10x_StdPeriph_Driver\src/stm32f10x_flash.c:1679
  FLASH_Status status = FLASH_COMPLETE;
   
  /* Check for the Flash Status */
  status = FLASH_GetBank1Status();
   4:	f7ff fffe 	bl	0 <FLASH_WaitForLastBank1Operation>
C:\Downloaded Files\Virtual-Com-2\Virtual-Com-2\Project\Virtual_COM_Port\RIDE\Libraries\STM32F10x_StdPeriph_Driver\src/stm32f10x_flash.c:1681
  /* Wait for a Flash operation to complete or a TIMEOUT to occur */
  while((status == FLASH_FLAG_BANK1_BSY) && (Timeout != 0x00))
   8:	2801      	cmp	r0, #1
   a:	d105      	bne.n	18 <FLASH_WaitForLastBank1Operation+0x18>
   c:	e000      	b.n	10 <FLASH_WaitForLastBank1Operation+0x10>
C:\Downloaded Files\Virtual-Com-2\Virtual-Com-2\Project\Virtual_COM_Port\RIDE\Libraries\STM32F10x_StdPeriph_Driver\src/stm32f10x_flash.c:1684
  {
    status = FLASH_GetBank1Status();
    Timeout--;
   e:	3c01      	subs	r4, #1
C:\Downloaded Files\Virtual-Com-2\Virtual-Com-2\Project\Virtual_COM_Port\RIDE\Libraries\STM32F10x_StdPeriph_Driver\src/stm32f10x_flash.c:1681
  FLASH_Status status = FLASH_COMPLETE;
   
  /* Check for the Flash Status */
  status = FLASH_GetBank1Status();
  /* Wait for a Flash operation to complete or a TIMEOUT to occur */
  while((status == FLASH_FLAG_BANK1_BSY) && (Timeout != 0x00))
  10:	2c00      	cmp	r4, #0
  12:	d1fc      	bne.n	e <FLASH_WaitForLastBank1Operation+0xe>
C:\Downloaded Files\Virtual-Com-2\Virtual-Com-2\Project\Virtual_COM_Port\RIDE\Libraries\STM32F10x_StdPeriph_Driver\src/stm32f10x_flash.c:1688
    status = FLASH_GetBank1Status();
    Timeout--;
  }
  if(Timeout == 0x00 )
  {
    status = FLASH_TIMEOUT;
  14:	2005      	movs	r0, #5
  16:	bd10      	pop	{r4, pc}
  18:	2c00      	cmp	r4, #0
  1a:	bf08      	it	eq
  1c:	2005      	moveq	r0, #5
C:\Downloaded Files\Virtual-Com-2\Virtual-Com-2\Project\Virtual_COM_Port\RIDE\Libraries\STM32F10x_StdPeriph_Driver\src/stm32f10x_flash.c:1692
  }
  /* Return the operation status */
  return status;
}
  1e:	bd10      	pop	{r4, pc}

Disassembly of section .text.FLASH_EraseAllBank1Pages:

00000000 <FLASH_EraseAllBank1Pages>:
FLASH_EraseAllBank1Pages():
C:\Downloaded Files\Virtual-Com-2\Virtual-Com-2\Project\Virtual_COM_Port\RIDE\Libraries\STM32F10x_StdPeriph_Driver\src/stm32f10x_flash.c:567
  * @param  None
  * @retval FLASH Status: The returned value can be: FLASH_ERROR_PG,
  *   FLASH_ERROR_WRP, FLASH_COMPLETE or FLASH_TIMEOUT.
  */
FLASH_Status FLASH_EraseAllBank1Pages(void)
{
   0:	b510      	push	{r4, lr}
C:\Downloaded Files\Virtual-Com-2\Virtual-Com-2\Project\Virtual_COM_Port\RIDE\Libraries\STM32F10x_StdPeriph_Driver\src/stm32f10x_flash.c:570
  FLASH_Status status = FLASH_COMPLETE;
  /* Wait for last operation to be completed */
  status = FLASH_WaitForLastBank1Operation(EraseTimeout);
   2:	f44f 2030 	mov.w	r0, #720896	; 0xb0000
   6:	f7ff fffe 	bl	0 <FLASH_EraseAllBank1Pages>
C:\Downloaded Files\Virtual-Com-2\Virtual-Com-2\Project\Virtual_COM_Port\RIDE\Libraries\STM32F10x_StdPeriph_Driver\src/stm32f10x_flash.c:572
  
  if(status == FLASH_COMPLETE)
   a:	2804      	cmp	r0, #4
   c:	d114      	bne.n	38 <FLASH_EraseAllBank1Pages+0x38>
C:\Downloaded Files\Virtual-Com-2\Virtual-Com-2\Project\Virtual_COM_Port\RIDE\Libraries\STM32F10x_StdPeriph_Driver\src/stm32f10x_flash.c:575
  {
    /* if the previous operation is completed, proceed to erase all pages */
     FLASH->CR |= CR_MER_Set;
   e:	4c0b      	ldr	r4, [pc, #44]	; (3c <FLASH_EraseAllBank1Pages+0x3c>)
C:\Downloaded Files\Virtual-Com-2\Virtual-Com-2\Project\Virtual_COM_Port\RIDE\Libraries\STM32F10x_StdPeriph_Driver\src/stm32f10x_flash.c:579
     FLASH->CR |= CR_STRT_Set;
    
    /* Wait for last operation to be completed */
    status = FLASH_WaitForLastBank1Operation(EraseTimeout);
  10:	f44f 2030 	mov.w	r0, #720896	; 0xb0000
C:\Downloaded Files\Virtual-Com-2\Virtual-Com-2\Project\Virtual_COM_Port\RIDE\Libraries\STM32F10x_StdPeriph_Driver\src/stm32f10x_flash.c:575
  status = FLASH_WaitForLastBank1Operation(EraseTimeout);
  
  if(status == FLASH_COMPLETE)
  {
    /* if the previous operation is completed, proceed to erase all pages */
     FLASH->CR |= CR_MER_Set;
  14:	6923      	ldr	r3, [r4, #16]
  16:	f043 0304 	orr.w	r3, r3, #4
  1a:	6123      	str	r3, [r4, #16]
C:\Downloaded Files\Virtual-Com-2\Virtual-Com-2\Project\Virtual_COM_Port\RIDE\Libraries\STM32F10x_StdPeriph_Driver\src/stm32f10x_flash.c:576
     FLASH->CR |= CR_STRT_Set;
  1c:	6923      	ldr	r3, [r4, #16]
  1e:	f043 0340 	orr.w	r3, r3, #64	; 0x40
  22:	6123      	str	r3, [r4, #16]
C:\Downloaded Files\Virtual-Com-2\Virtual-Com-2\Project\Virtual_COM_Port\RIDE\Libraries\STM32F10x_StdPeriph_Driver\src/stm32f10x_flash.c:579
    
    /* Wait for last operation to be completed */
    status = FLASH_WaitForLastBank1Operation(EraseTimeout);
  24:	f7ff fffe 	bl	0 <FLASH_EraseAllBank1Pages>
C:\Downloaded Files\Virtual-Com-2\Virtual-Com-2\Project\Virtual_COM_Port\RIDE\Libraries\STM32F10x_StdPeriph_Driver\src/stm32f10x_flash.c:580
    if(status != FLASH_TIMEOUT)
  28:	2805      	cmp	r0, #5
  2a:	d005      	beq.n	38 <FLASH_EraseAllBank1Pages+0x38>
C:\Downloaded Files\Virtual-Com-2\Virtual-Com-2\Project\Virtual_COM_Port\RIDE\Libraries\STM32F10x_StdPeriph_Driver\src/stm32f10x_flash.c:583
    {
      /* if the erase operation is completed, disable the MER Bit */
      FLASH->CR &= CR_MER_Reset;
  2c:	6922      	ldr	r2, [r4, #16]
  2e:	f641 73fb 	movw	r3, #8187	; 0x1ffb
  32:	ea02 0303 	and.w	r3, r2, r3
  36:	6123      	str	r3, [r4, #16]
C:\Downloaded Files\Virtual-Com-2\Virtual-Com-2\Project\Virtual_COM_Port\RIDE\Libraries\STM32F10x_StdPeriph_Driver\src/stm32f10x_flash.c:588
    }
  }    
  /* Return the Erase Status */
  return status;
}
  38:	bd10      	pop	{r4, pc}
  3a:	bf00      	nop
  3c:	40022000 	.word	0x40022000
